(lp0
(i__main__
ChartSentiment
p1
(dp2
S'complete'
p3
I01
sS'sentiment'
p4
F-0.1957088421052632
sS'name'
p5
S'hot-100'
p6
sS'limit'
p7
I150
sS'entries'
p8
(lp9
(i__main__
EntrySentiment
p10
(dp11
S'success'
p12
I01
sS'peakPos'
p13
I1
sS'artist'
p14
VTaylor Swift
p15
sS'lastPos'
p16
I1
sS'title'
p17
VBlank Space
p18
sS'rank'
p19
I1
sS'weeks'
p20
I4
sS'change'
p21
S'0'
p22
sba(i__main__
EntrySentiment
p23
(dp24
g12
I01
sg13
I1
sg14
VMeghan Trainor
p25
sg16
I2
sg17
VAll About That Bass
p26
sg19
I2
sg20
I20
sg21
g22
sba(i__main__
EntrySentiment
p27
(dp28
g12
I01
sg13
I3
sg14
VHozier
p29
sg16
I6
sg17
VTake Me To Church
p30
sg19
I3
sg20
I15
sg21
S'+3'
p31
sba(i__main__
EntrySentiment
p32
(dp33
g12
I01
sg13
I3
sg14
VMaroon 5
p34
sg16
I4
sg17
VAnimals
p35
sg19
I4
sg20
I14
sg21
g22
sba(i__main__
EntrySentiment
p36
(dp37
g12
I01
sg13
I1
sg14
VTaylor Swift
p38
sg16
I3
sg17
VShake It Off
p39
sg19
I5
sg20
I14
sg21
S'-2'
p40
sba(i__main__
EntrySentiment
p41
(dp42
g12
I01
sg13
I3
sg14
VTove Lo
p43
sg16
I5
sg17
VHabits (Stay High)
p44
sg19
I6
sg20
I26
sg21
S'-1'
p45
sba(i__main__
EntrySentiment
p46
(dp47
g12
I01
sg13
I7
sg14
VSam Smith
p48
sg16
I9
sg17
VI'm Not The Only One
p49
sg19
I7
sg20
I12
sg21
S'+2'
p50
sba(i__main__
EntrySentiment
p51
(dp52
g12
I01
sg13
I8
sg14
VNick Jonas
p53
sg16
I10
sg17
VJealous
p54
sg19
I8
sg20
I11
sg21
S'+2'
p55
sba(i__main__
EntrySentiment
p56
(dp57
g12
I01
sg13
I7
sg14
VAriana Grande & The Weeknd
p58
sg16
I13
sg17
VLove Me Harder
p59
sg19
I9
sg20
I7
sg21
S'+4'
p60
sba(i__main__
EntrySentiment
p61
(dp62
g12
I01
sg13
I9
sg14
VEd Sheeran
p63
sg16
I11
sg17
VDon't
p64
sg19
I10
sg20
I24
sg21
S'+1'
p65
sba(i__main__
EntrySentiment
p66
(dp67
g12
I01
sg13
I11
sg14
VBig Sean Featuring E-40
p68
sg16
I14
sg17
VI Don't F**k With You
p69
sg19
I11
sg20
I9
sg21
S'+3'
p70
sba(i__main__
EntrySentiment
p71
(dp72
g12
I01
sg13
I3
sg14
VJessie J, Ariana Grande & Nicki Minaj
p73
sg16
I8
sg17
VBang Bang
p74
sg19
I12
sg20
I17
sg21
S'-4'
p75
sba(i__main__
EntrySentiment
p76
(dp77
g12
I01
sg13
I12
sg14
VI LOVE MAKONNEN Featuring Drake
p78
sg16
I12
sg17
VTuesday
p79
sg19
I13
sg20
I9
sg21
S'-1'
p80
sba(i__main__
EntrySentiment
p81
(dp82
g12
I01
sg13
I14
sg14
VMr. Probz
p83
sg16
I19
sg17
VWaves
p84
sg19
I14
sg20
I14
sg21
S'+5'
p85
sba(i__main__
EntrySentiment
p86
(dp87
g12
I01
sg13
I6
sg14
VBobby Shmurda
p88
sg16
I7
sg17
VHot Boy
p89
sg19
I15
sg20
I17
sg21
S'-8'
p90
sba(i__main__
EntrySentiment
p91
(dp92
g12
I01
sg13
I16
sg14
VRae Sremmurd
p93
sg16
I17
sg17
VNo Type
p94
sg19
I16
sg20
I9
sg21
S'+1'
p95
sba(i__main__
EntrySentiment
p96
(dp97
g12
I01
sg13
I14
sg14
VJason Derulo
p98
sg16
I18
sg17
VTrumpets
p99
sg19
I17
sg20
I26
sg21
S'+1'
p100
sba(i__main__
EntrySentiment
p101
(dp102
g12
I01
sg13
I18
sg14
VMark Ronson Featuring Bruno Mars
p103
sg16
I65
sg17
VUptown Funk!
p104
sg19
I18
sg20
I2
sg21
S'+47'
p105
sba(i__main__
EntrySentiment
p106
(dp107
g12
I01
sg13
I19
sg14
VMeghan Trainor
p108
sg16
I38
sg17
VLips Are Movin
p109
sg19
I19
sg20
I5
sg21
S'+19'
p110
sba(i__main__
EntrySentiment
p111
(dp112
g12
I01
sg13
I20
sg14
VSelena Gomez
p113
sg16
I26
sg17
VThe Heart Wants What It Wants
p114
sg19
I20
sg20
I3
sg21
S'+6'
p115
sba(i__main__
EntrySentiment
p116
(dp117
g12
I01
sg13
I19
sg14
VCalvin Harris Featuring John Newman
p118
sg16
I21
sg17
VBlame
p119
sg19
I21
sg20
I11
sg21
g22
sba(i__main__
EntrySentiment
p120
(dp121
g12
I01
sg13
I6
sg14
VJeremih Featuring YG
p122
sg16
I15
sg17
VDon't Tell 'Em
p123
sg19
I22
sg20
I22
sg21
S'-7'
p124
sba(i__main__
EntrySentiment
p125
(dp126
g12
I01
sg13
I3
sg14
VIggy Azalea Featuring Rita Ora
p127
sg16
I16
sg17
VBlack Widow
p128
sg19
I23
sg20
I21
sg21
S'-7'
p129
sba(i__main__
EntrySentiment
p130
(dp131
g12
I01
sg13
I2
sg14
VSam Smith
p132
sg16
I20
sg17
VStay With Me
p133
sg19
I24
sg20
I33
sg21
S'-4'
p134
sba(i__main__
EntrySentiment
p135
(dp136
g12
I01
sg13
I22
sg14
VFall Out Boy
p137
sg16
I29
sg17
VCenturies
p138
sg19
I25
sg20
I11
sg21
S'+4'
p139
sba(i__main__
EntrySentiment
p140
(dp141
g12
I01
sg13
I26
sg14
VPentatonix
p142
sg16
I0
sg17
VMary, Did You Know?
p143
sg19
I26
sg20
I1
sg21
S'New'
p144
sba(i__main__
EntrySentiment
p145
(dp146
g12
I01
sg13
I16
sg14
VRich Gang Featuring Young Thug & Rich Homie Quan
p147
sg16
I22
sg17
VLifestyle
p148
sg19
I27
sg20
I19
sg21
S'-5'
p149
sba(i__main__
EntrySentiment
p150
(dp151
g12
I01
sg13
I10
sg14
VClean Bandit Featuring Jess Glynne
p152
sg16
I23
sg17
VRather Be
p153
sg19
I28
sg20
I24
sg21
S'-5'
p154
sba(i__main__
EntrySentiment
p155
(dp156
g12
I01
sg13
I13
sg14
VOne Direction
p157
sg16
I33
sg17
VSteal My Girl
p158
sg19
I29
sg20
I8
sg21
S'+4'
p159
sba(i__main__
EntrySentiment
p160
(dp161
g12
I01
sg13
I13
sg14
VEchosmith
p162
sg16
I24
sg17
VCool Kids
p163
sg19
I30
sg20
I20
sg21
S'-6'
p164
sba(i__main__
EntrySentiment
p165
(dp166
g12
I01
sg13
I27
sg14
VNicki Minaj Featuring Drake, Lil Wayne & Chris Brown
p167
sg16
I27
sg17
VOnly
p168
sg19
I31
sg20
I4
sg21
S'-4'
p169
sba(i__main__
EntrySentiment
p170
(dp171
g12
I01
sg13
I8
sg14
VSia
p172
sg16
I25
sg17
VChandelier
p173
sg19
I32
sg20
I29
sg21
S'-7'
p174
sba(i__main__
EntrySentiment
p175
(dp176
g12
I01
sg13
I1
sg14
VMAGIC!
p177
sg16
I28
sg17
VRude
p178
sg19
I33
sg20
I31
sg21
S'-5'
p179
sba(i__main__
EntrySentiment
p180
(dp181
g12
I01
sg13
I32
sg14
VVance Joy
p182
sg16
I32
sg17
VRiptide
p183
sg19
I34
sg20
I22
sg21
S'-2'
p184
sba(i__main__
EntrySentiment
p185
(dp186
g12
I01
sg13
I35
sg14
VIggy Azalea Featuring M0
p187
sg16
I49
sg17
VBeg For It
p188
sg19
I35
sg20
I5
sg21
S'+14'
p189
sba(i__main__
EntrySentiment
p190
(dp191
g12
I01
sg13
I36
sg14
VFergie
p192
sg16
I41
sg17
VL.A.LOVE (la la)
p193
sg19
I36
sg20
I7
sg21
S'+5'
p194
sba(i__main__
EntrySentiment
p195
(dp196
g12
I01
sg13
I27
sg14
VChris Brown Featuring Usher & Rick Ross
p197
sg16
I30
sg17
VNew Flame
p198
sg19
I37
sg20
I19
sg21
S'-7'
p199
sba(i__main__
EntrySentiment
p200
(dp201
g12
I01
sg13
I24
sg14
VCarrie Underwood
p202
sg16
I35
sg17
VSomething In The Water
p203
sg19
I38
sg20
I8
sg21
S'-3'
p204
sba(i__main__
EntrySentiment
p205
(dp206
g12
I01
sg13
I39
sg14
VDJ Khaled Featuring Chris Brown, August Alsina, Future & Jeremih
p207
sg16
I39
sg17
VHold You Down
p208
sg19
I39
sg20
I12
sg21
g22
sba(i__main__
EntrySentiment
p209
(dp210
g12
I01
sg13
I40
sg14
VEd Sheeran
p211
sg16
I62
sg17
VThinking Out Loud
p212
sg19
I40
sg20
I7
sg21
S'+22'
p213
sba(i__main__
EntrySentiment
p214
(dp215
g12
I01
sg13
I41
sg14
VMilky Chance
p216
sg16
I50
sg17
VStolen Dance
p217
sg19
I41
sg20
I18
sg21
S'+9'
p218
sba(i__main__
EntrySentiment
p219
(dp220
g12
I01
sg13
I4
sg14
VAriana Grande Featuring Zedd
p221
sg16
I31
sg17
VBreak Free
p222
sg19
I42
sg20
I21
sg21
S'-11'
p223
sba(i__main__
EntrySentiment
p224
(dp225
g12
I01
sg13
I1
sg14
VJohn Legend
p226
sg16
I36
sg17
VAll Of Me
p227
sg19
I43
sg20
I59
sg21
S'-7'
p228
sba(i__main__
EntrySentiment
p229
(dp230
g12
I01
sg13
I43
sg14
VTrey Songz Featuring Nicki Minaj
p231
sg16
I43
sg17
VTouchin, Lovin
p232
sg19
I44
sg20
I12
sg21
S'-1'
p233
sba(i__main__
EntrySentiment
p234
(dp235
g12
I01
sg13
I45
sg14
VTim McGraw
p236
sg16
I54
sg17
VShotgun Rider
p237
sg19
I45
sg20
I8
sg21
S'+9'
p238
sba(i__main__
EntrySentiment
p239
(dp240
g12
I01
sg13
I12
sg14
VEnrique Iglesias Featuring Descemer Bueno & Gente de Zona
p241
sg16
I44
sg17
VBailando
p242
sg19
I46
sg20
I30
sg21
S'-2'
p243
sba(i__main__
EntrySentiment
p244
(dp245
g12
I01
sg13
I46
sg14
VDeJ Loaf
p246
sg16
I46
sg17
VTry Me
p247
sg19
I47
sg20
I5
sg21
S'-1'
p248
sba(i__main__
EntrySentiment
p249
(dp250
g12
I01
sg13
I1
sg14
VIggy Azalea Featuring Charli XCX
p251
sg16
I45
sg17
VFancy
p252
sg19
I48
sg20
I38
sg21
S'-3'
p253
sba(i__main__
EntrySentiment
p254
(dp255
g12
I01
sg13
I8
sg14
VCharli XCX
p256
sg16
I47
sg17
VBoom Clap
p257
sg19
I49
sg20
I25
sg21
S'-2'
p258
sba(i__main__
EntrySentiment
p259
(dp260
g12
I01
sg13
I1
sg14
VPharrell Williams
p261
sg16
I37
sg17
VHappy
p262
sg19
I50
sg20
I47
sg21
S'-13'
p263
sba(i__main__
EntrySentiment
p264
(dp265
g12
I01
sg13
I49
sg14
VKeith Urban
p266
sg16
I52
sg17
VSomewhere In My Car
p267
sg19
I51
sg20
I13
sg21
S'+1'
p268
sba(i__main__
EntrySentiment
p269
(dp270
g12
I01
sg13
I52
sg14
VElla Henderson
p271
sg16
I94
sg17
VGhost
p272
sg19
I52
sg20
I4
sg21
S'+42'
p273
sba(i__main__
EntrySentiment
p274
(dp275
g12
I01
sg13
I53
sg14
VAlesso Featuring Tove Lo
p276
sg16
I61
sg17
VHeroes (We Could Be)
p277
sg19
I53
sg20
I8
sg21
S'+8'
p278
sba(i__main__
EntrySentiment
p279
(dp280
g12
I01
sg13
I2
sg14
VNicki Minaj
p281
sg16
I34
sg17
VAnaconda
p282
sg19
I54
sg20
I16
sg21
S'-20'
p283
sba(i__main__
EntrySentiment
p284
(dp285
g12
I01
sg13
I55
sg14
VOne Direction
p286
sg16
I0
sg17
VNight Changes
p287
sg19
I55
sg20
I1
sg21
g144
sba(i__main__
EntrySentiment
p288
(dp289
g12
I01
sg13
I56
sg14
VMaddie & Tae
p290
sg16
I56
sg17
VGirl In A Country Song
p291
sg19
I56
sg20
I16
sg21
g22
sba(i__main__
EntrySentiment
p292
(dp293
g12
I01
sg13
I42
sg14
VT.I. Featuring Young Thug
p294
sg16
I51
sg17
VAbout The Money
p295
sg19
I57
sg20
I16
sg21
S'-6'
p296
sba(i__main__
EntrySentiment
p297
(dp298
g12
I01
sg13
I40
sg14
VLittle Big Town
p299
sg16
I55
sg17
VDay Drinking
p300
sg19
I58
sg20
I18
sg21
S'-3'
p301
sba(i__main__
EntrySentiment
p302
(dp303
g12
I01
sg13
I35
sg14
VDrake
p304
sg16
I53
sg17
V0 To 100 / The Catch Up
p305
sg19
I59
sg20
I18
sg21
S'-6'
p306
sba(i__main__
EntrySentiment
p307
(dp308
g12
I01
sg13
I36
sg14
VRae Sremmurd
p309
sg16
I58
sg17
VNo Flex Zone
p310
sg19
I60
sg20
I17
sg21
S'-2'
p311
sba(i__main__
EntrySentiment
p312
(dp313
g12
I01
sg13
I61
sg14
VBrad Paisley
p314
sg16
I68
sg17
VPerfect Storm
p315
sg19
I61
sg20
I7
sg21
S'+7'
p316
sba(i__main__
EntrySentiment
p317
(dp318
g12
I01
sg13
I39
sg14
VKendrick Lamar
p319
sg16
I59
sg17
Vi
p320
sg19
I62
sg20
I9
sg21
S'-3'
p321
sba(i__main__
EntrySentiment
p322
(dp323
g12
I00
sg13
I63
sg14
VBand Aid 30
p324
sg16
I0
sg17
VDo They Know It's Christmas? (2014)
p325
sg19
I63
sg20
I1
sg21
g144
sba(i__main__
EntrySentiment
p326
(dp327
g12
I01
sg13
I43
sg14
VBlake Shelton
p328
sg16
I57
sg17
VNeon Light
p329
sg19
I64
sg20
I14
sg21
S'-7'
p330
sba(i__main__
EntrySentiment
p331
(dp332
g12
I01
sg13
I65
sg14
VLorde
p333
sg16
I82
sg17
VYellow Flicker Beat
p334
sg19
I65
sg20
I3
sg21
S'+17'
p335
sba(i__main__
EntrySentiment
p336
(dp337
g12
I01
sg13
I66
sg14
VDavid Guetta Featuring Sam Martin
p338
sg16
I71
sg17
VDangerous
p339
sg19
I66
sg20
I5
sg21
S'+5'
p340
sba(i__main__
EntrySentiment
p341
(dp342
g12
I01
sg13
I57
sg14
VFrankie Ballard
p343
sg16
I60
sg17
VSunshine & Whiskey
p344
sg19
I67
sg20
I20
sg21
S'-7'
p345
sba(i__main__
EntrySentiment
p346
(dp347
g12
I01
sg13
I23
sg14
VPitbull Featuring John Ryan
p348
sg16
I64
sg17
VFireball
p349
sg19
I68
sg20
I16
sg21
S'-4'
p350
sba(i__main__
EntrySentiment
p351
(dp352
g12
I01
sg13
I12
sg14
VJason Aldean
p353
sg16
I63
sg17
VBurnin' It Down
p354
sg19
I69
sg20
I18
sg21
S'-6'
p355
sba(i__main__
EntrySentiment
p356
(dp357
g12
I01
sg13
I70
sg14
VNicki Minaj Featruing Skylar Grey
p358
sg16
I0
sg17
VBed Of Lies
p359
sg19
I70
sg20
I1
sg21
g144
sba(i__main__
EntrySentiment
p360
(dp361
g12
I01
sg13
I69
sg14
VEric Church
p362
sg16
I70
sg17
VTalladega
p363
sg19
I71
sg20
I5
sg21
S'-1'
p364
sba(i__main__
EntrySentiment
p365
(dp366
g12
I01
sg13
I53
sg14
VImagine Dragons
p367
sg16
I0
sg17
VI Bet My Life
p368
sg19
I72
sg20
I3
sg21
S'Re-Entry'
p369
sba(i__main__
EntrySentiment
p370
(dp371
g12
I01
sg13
I73
sg14
VFlorida Georgia Line
p372
sg16
I75
sg17
VSun Daze
p373
sg19
I73
sg20
I5
sg21
S'+2'
p374
sba(i__main__
EntrySentiment
p375
(dp376
g12
I01
sg13
I55
sg14
VColbie Caillat
p377
sg16
I66
sg17
VTry
p378
sg19
I74
sg20
I14
sg21
S'-8'
p379
sba(i__main__
EntrySentiment
p380
(dp381
g12
I01
sg13
I69
sg14
VAugust Alsina
p382
sg16
I69
sg17
VNo Love
p383
sg19
I75
sg20
I10
sg21
S'-6'
p384
sba(i__main__
EntrySentiment
p385
(dp386
g12
I01
sg13
I73
sg14
VBig & Rich
p387
sg16
I73
sg17
VLook At You
p388
sg19
I76
sg20
I12
sg21
S'-3'
p389
sba(i__main__
EntrySentiment
p390
(dp391
g12
I01
sg13
I77
sg14
VO.T. Genasis
p392
sg16
I0
sg17
VCoCo
p393
sg19
I77
sg20
I1
sg21
g144
sba(i__main__
EntrySentiment
p394
(dp395
g12
I00
sg13
I78
sg14
VIdina Menzel Duet With Michael Buble
p396
sg16
I0
sg17
VBaby It's Cold Outside
p397
sg19
I78
sg20
I1
sg21
g144
sba(i__main__
EntrySentiment
p398
(dp399
g12
I01
sg13
I11
sg14
VFlorida Georgia Line
p400
sg16
I67
sg17
VDirt
p401
sg19
I79
sg20
I20
sg21
S'-12'
p402
sba(i__main__
EntrySentiment
p403
(dp404
g12
I00
sg13
I77
sg14
VParmalee
p405
sg16
I77
sg17
VClose Your Eyes
p406
sg19
I80
sg20
I9
sg21
S'-3'
p407
sba(i__main__
EntrySentiment
p408
(dp409
g12
I01
sg13
I72
sg14
VNico & Vinz
p410
sg16
I74
sg17
VIn Your Arms
p411
sg19
I81
sg20
I6
sg21
S'-7'
p412
sba(i__main__
EntrySentiment
p413
(dp414
g12
I01
sg13
I80
sg14
VLee Brice
p415
sg16
I80
sg17
VDrinking Class
p416
sg19
I82
sg20
I6
sg21
S'-2'
p417
sba(i__main__
EntrySentiment
p418
(dp419
g12
I00
sg13
I46
sg14
VGwen Stefani
p420
sg16
I76
sg17
VBaby Don't Lie
p421
sg19
I83
sg20
I5
sg21
S'-7'
p422
sba(i__main__
EntrySentiment
p423
(dp424
g12
I01
sg13
I84
sg14
VThe Weeknd
p425
sg16
I86
sg17
VOften
p426
sg19
I84
sg20
I6
sg21
S'+2'
p427
sba(i__main__
EntrySentiment
p428
(dp429
g12
I01
sg13
I34
sg14
V5 Seconds Of Summer
p430
sg16
I0
sg17
VGood Girls
p431
sg19
I85
sg20
I2
sg21
g369
sba(i__main__
EntrySentiment
p432
(dp433
g12
I01
sg13
I83
sg14
VKenny Chesney
p434
sg16
I83
sg17
VTil It's Gone
p435
sg19
I86
sg20
I4
sg21
S'-3'
p436
sba(i__main__
EntrySentiment
p437
(dp438
g12
I01
sg13
I84
sg14
VScotty McCreery
p439
sg16
I84
sg17
VFeelin' It
p440
sg19
I87
sg20
I9
sg21
S'-3'
p441
sba(i__main__
EntrySentiment
p442
(dp443
g12
I01
sg13
I85
sg14
VRaeLynn
p444
sg16
I85
sg17
VGod Made Girls
p445
sg19
I88
sg20
I5
sg21
S'-3'
p446
sba(i__main__
EntrySentiment
p447
(dp448
g12
I01
sg13
I78
sg14
VKid Ink Featuring Usher & Tinashe
p449
sg16
I78
sg17
VBody Language
p450
sg19
I89
sg20
I7
sg21
S'-11'
p451
sba(i__main__
EntrySentiment
p452
(dp453
g12
I00
sg13
I86
sg14
VJessie J Featuring 2 Chainz
p454
sg16
I0
sg17
VBurnin' Up
p455
sg19
I90
sg20
I2
sg21
g369
sba(i__main__
EntrySentiment
p456
(dp457
g12
I01
sg13
I24
sg14
VKaty Perry
p458
sg16
I79
sg17
VThis Is How We Do
p459
sg19
I91
sg20
I17
sg21
S'-12'
p460
sba(i__main__
EntrySentiment
p461
(dp462
g12
I01
sg13
I92
sg14
VMatt McAndrew
p463
sg16
I0
sg17
VTake Me To Church
p464
sg19
I92
sg20
I1
sg21
g144
sba(i__main__
EntrySentiment
p465
(dp466
g12
I01
sg13
I43
sg14
VLuke Bryan
p467
sg16
I81
sg17
VRoller Coaster
p468
sg19
I93
sg20
I19
sg21
S'-12'
p469
sba(i__main__
EntrySentiment
p470
(dp471
g12
I01
sg13
I18
sg14
VJennifer Lopez Featuring Iggy Azalea Or Pitbull
p472
sg16
I0
sg17
VBooty
p473
sg19
I94
sg20
I8
sg21
g369
sba(i__main__
EntrySentiment
p474
(dp475
g12
I01
sg13
I95
sg14
VUsher Featuring Juicy J
p476
sg16
I0
sg17
VI Don't Mind
p477
sg19
I95
sg20
I1
sg21
g144
sba(i__main__
EntrySentiment
p478
(dp479
g12
I01
sg13
I96
sg14
VThomas Rhett
p480
sg16
I99
sg17
VMake Me Wanna
p481
sg19
I96
sg20
I2
sg21
S'+3'
p482
sba(i__main__
EntrySentiment
p483
(dp484
g12
I01
sg13
I95
sg14
VBrett Eldredge
p485
sg16
I95
sg17
VMean To Me
p486
sg19
I97
sg20
I3
sg21
S'-2'
p487
sba(i__main__
EntrySentiment
p488
(dp489
g12
I01
sg13
I84
sg14
VFlo Rida Featuring Sage The Gemini & Lookas
p490
sg16
I0
sg17
VG.D.F.R.
p491
sg19
I98
sg20
I3
sg21
g369
sba(i__main__
EntrySentiment
p492
(dp493
g12
I01
sg13
I99
sg14
VOne Direction
p494
sg16
I0
sg17
VStockholm Syndrome
p495
sg19
I99
sg20
I1
sg21
g144
sba(i__main__
EntrySentiment
p496
(dp497
g12
I01
sg13
I82
sg14
VWiz Khalifa Featuring Snoop Dogg & Ty Dolla $ign
p498
sg16
I91
sg17
VYou And Your Friends
p499
sg19
I100
sg20
I10
sg21
S'-9'
p500
sbasS'date'
p501
S'2014-12-06'
p502
sS'no_lyrics'
p503
(lp504
(g324
g325
Vhttp://www.songlyrics.com/band-aid-30/do-they-know-it-s-christmas-lyrics/
p505
tp506
a(g396
g397
Vhttp://www.songlyrics.com/idina-menzel-duet-with-michael-buble/baby-it-s-cold-outside-lyrics/
p507
tp508
a(g405
g406
Vhttp://www.songlyrics.com/parmalee/close-your-eyes-lyrics/
p509
tp510
a(g420
g421
Vhttp://www.songlyrics.com/gwen-stefani/baby-don-t-lie-lyrics/
p511
tp512
a(g454
g455
Vhttp://www.songlyrics.com/jessie-j/burnin-up-lyrics/
p513
tp514
asS'latest'
p515
I00
sba(i__main__
ChartSentiment
p516
(dp517
g3
I01
sg4
F-0.17868908421052626
sg5
g6
sg7
I150
sg8
(lp518
(i__main__
EntrySentiment
p519
(dp520
g12
I01
sg13
I1
sg14
VTaylor Swift
p521
sg16
I1
sg17
VBlank Space
p522
sg19
I1
sg20
I5
sg21
g22
sba(i__main__
EntrySentiment
p523
(dp524
g12
I01
sg13
I1
sg14
VMeghan Trainor
p525
sg16
I2
sg17
VAll About That Bass
p526
sg19
I2
sg20
I21
sg21
g22
sba(i__main__
EntrySentiment
p527
(dp528
g12
I01
sg13
I3
sg14
VHozier
p529
sg16
I3
sg17
VTake Me To Church
p530
sg19
I3
sg20
I16
sg21
g22
sba(i__main__
EntrySentiment
p531
(dp532
g12
I01
sg13
I1
sg14
VTaylor Swift
p533
sg16
I5
sg17
VShake It Off
p534
sg19
I4
sg20
I15
sg21
S'+1'
p535
sba(i__main__
EntrySentiment
p536
(dp537
g12
I01
sg13
I3
sg14
VMaroon 5
p538
sg16
I4
sg17
VAnimals
p539
sg19
I5
sg20
I15
sg21
S'-1'
p540
sba(i__main__
EntrySentiment
p541
(dp542
g12
I01
sg13
I6
sg14
VSelena Gomez
p543
sg16
I20
sg17
VThe Heart Wants What It Wants
p544
sg19
I6
sg20
I4
sg21
S'+14'
p545
sba(i__main__
EntrySentiment
p546
(dp547
g12
I01
sg13
I7
sg14
VSam Smith
p548
sg16
I7
sg17
VI'm Not The Only One
p549
sg19
I7
sg20
I13
sg21
g22
sba(i__main__
EntrySentiment
p550
(dp551
g12
I01
sg13
I8
sg14
VMark Ronson Featuring Bruno Mars
p552
sg16
I18
sg17
VUptown Funk!
p553
sg19
I8
sg20
I3
sg21
S'+10'
p554
sba(i__main__
EntrySentiment
p555
(dp556
g12
I01
sg13
I3
sg14
VTove Lo
p557
sg16
I6
sg17
VHabits (Stay High)
p558
sg19
I9
sg20
I27
sg21
S'-3'
p559
sba(i__main__
EntrySentiment
p560
(dp561
g12
I01
sg13
I7
sg14
VAriana Grande & The Weeknd
p562
sg16
I9
sg17
VLove Me Harder
p563
sg19
I10
sg20
I8
sg21
S'-1'
p564
sba(i__main__
EntrySentiment
p565
(dp566
g12
I01
sg13
I8
sg14
VNick Jonas
p567
sg16
I8
sg17
VJealous
p568
sg19
I11
sg20
I12
sg21
S'-3'
p569
sba(i__main__
EntrySentiment
p570
(dp571
g12
I00
sg13
I12
sg14
VJames Newton Howard Featuring Jennifer Lawrence
p572
sg16
I0
sg17
VThe Hanging Tree
p573
sg19
I12
sg20
I1
sg21
g144
sba(i__main__
EntrySentiment
p574
(dp575
g12
I01
sg13
I13
sg14
VMeghan Trainor
p576
sg16
I19
sg17
VLips Are Movin
p577
sg19
I13
sg20
I6
sg21
S'+6'
p578
sba(i__main__
EntrySentiment
p579
(dp580
g12
I01
sg13
I3
sg14
VJessie J, Ariana Grande & Nicki Minaj
p581
sg16
I12
sg17
VBang Bang
p582
sg19
I14
sg20
I18
sg21
S'-2'
p583
sba(i__main__
EntrySentiment
p584
(dp585
g12
I01
sg13
I11
sg14
VBig Sean Featuring E-40
p586
sg16
I11
sg17
VI Don't F**k With You
p587
sg19
I15
sg20
I10
sg21
S'-4'
p588
sba(i__main__
EntrySentiment
p589
(dp590
g12
I01
sg13
I12
sg14
VI LOVE MAKONNEN Featuring Drake
p591
sg16
I13
sg17
VTuesday
p592
sg19
I16
sg20
I10
sg21
S'-3'
p593
sba(i__main__
EntrySentiment
p594
(dp595
g12
I01
sg13
I9
sg14
VEd Sheeran
p596
sg16
I10
sg17
VDon't
p597
sg19
I17
sg20
I25
sg21
S'-7'
p598
sba(i__main__
EntrySentiment
p599
(dp600
g12
I01
sg13
I18
sg14
VBeyonce
p601
sg16
I0
sg17
V7/11
p602
sg19
I18
sg20
I1
sg21
g144
sba(i__main__
EntrySentiment
p603
(dp604
g12
I01
sg13
I6
sg14
VBobby Shmurda
p605
sg16
I15
sg17
VHot Boy
p606
sg19
I19
sg20
I18
sg21
S'-4'
p607
sba(i__main__
EntrySentiment
p608
(dp609
g12
I01
sg13
I14
sg14
VMr. Probz
p610
sg16
I14
sg17
VWaves
p611
sg19
I20
sg20
I15
sg21
S'-6'
p612
sba(i__main__
EntrySentiment
p613
(dp614
g12
I01
sg13
I16
sg14
VRae Sremmurd
p615
sg16
I16
sg17
VNo Type
p616
sg19
I21
sg20
I10
sg21
S'-5'
p617
sba(i__main__
EntrySentiment
p618
(dp619
g12
I01
sg13
I14
sg14
VJason Derulo
p620
sg16
I17
sg17
VTrumpets
p621
sg19
I22
sg20
I27
sg21
S'-5'
p622
sba(i__main__
EntrySentiment
p623
(dp624
g12
I01
sg13
I19
sg14
VCalvin Harris Featuring John Newman
p625
sg16
I21
sg17
VBlame
p626
sg19
I23
sg20
I12
sg21
S'-2'
p627
sba(i__main__
EntrySentiment
p628
(dp629
g12
I01
sg13
I3
sg14
VIggy Azalea Featuring Rita Ora
p630
sg16
I23
sg17
VBlack Widow
p631
sg19
I24
sg20
I22
sg21
S'-1'
p632
sba(i__main__
EntrySentiment
p633
(dp634
g12
I01
sg13
I6
sg14
VJeremih Featuring YG
p635
sg16
I22
sg17
VDon't Tell 'Em
p636
sg19
I25
sg20
I23
sg21
S'-3'
p637
sba(i__main__
EntrySentiment
p638
(dp639
g12
I01
sg13
I2
sg14
VSam Smith
p640
sg16
I24
sg17
VStay With Me
p641
sg19
I26
sg20
I34
sg21
S'-2'
p642
sba(i__main__
EntrySentiment
p643
(dp644
g12
I01
sg13
I27
sg14
VFergie
p645
sg16
I36
sg17
VL.A.LOVE (la la)
p646
sg19
I27
sg20
I8
sg21
S'+9'
p647
sba(i__main__
EntrySentiment
p648
(dp649
g12
I01
sg13
I22
sg14
VFall Out Boy
p650
sg16
I25
sg17
VCenturies
p651
sg19
I28
sg20
I12
sg21
S'-3'
p652
sba(i__main__
EntrySentiment
p653
(dp654
g12
I01
sg13
I29
sg14
VIggy Azalea Featuring M0
p655
sg16
I35
sg17
VBeg For It
p656
sg19
I29
sg20
I6
sg21
S'+6'
p657
sba(i__main__
EntrySentiment
p658
(dp659
g12
I01
sg13
I16
sg14
VRich Gang Featuring Young Thug & Rich Homie Quan
p660
sg16
I27
sg17
VLifestyle
p661
sg19
I30
sg20
I20
sg21
S'-3'
p662
sba(i__main__
EntrySentiment
p663
(dp664
g12
I01
sg13
I31
sg14
VOne Direction
p665
sg16
I55
sg17
VNight Changes
p666
sg19
I31
sg20
I2
sg21
S'+24'
p667
sba(i__main__
EntrySentiment
p668
(dp669
g12
I01
sg13
I10
sg14
VClean Bandit Featuring Jess Glynne
p670
sg16
I28
sg17
VRather Be
p671
sg19
I32
sg20
I25
sg21
S'-4'
p672
sba(i__main__
EntrySentiment
p673
(dp674
g12
I01
sg13
I27
sg14
VNicki Minaj Featuring Drake, Lil Wayne & Chris Brown
p675
sg16
I31
sg17
VOnly
p676
sg19
I33
sg20
I5
sg21
S'-2'
p677
sba(i__main__
EntrySentiment
p678
(dp679
g12
I01
sg13
I34
sg14
VLorde
p680
sg16
I65
sg17
VYellow Flicker Beat
p681
sg19
I34
sg20
I4
sg21
S'+31'
p682
sba(i__main__
EntrySentiment
p683
(dp684
g12
I01
sg13
I8
sg14
VSia
p685
sg16
I32
sg17
VChandelier
p686
sg19
I35
sg20
I30
sg21
S'-3'
p687
sba(i__main__
EntrySentiment
p688
(dp689
g12
I01
sg13
I13
sg14
VEchosmith
p690
sg16
I30
sg17
VCool Kids
p691
sg19
I36
sg20
I21
sg21
S'-6'
p692
sba(i__main__
EntrySentiment
p693
(dp694
g12
I01
sg13
I1
sg14
VMAGIC!
p695
sg16
I33
sg17
VRude
p696
sg19
I37
sg20
I32
sg21
S'-4'
p697
sba(i__main__
EntrySentiment
p698
(dp699
g12
I01
sg13
I38
sg14
VO.T. Genasis
p700
sg16
I77
sg17
VCoCo
p701
sg19
I38
sg20
I2
sg21
S'+39'
p702
sba(i__main__
EntrySentiment
p703
(dp704
g12
I01
sg13
I39
sg14
VEd Sheeran
p705
sg16
I40
sg17
VThinking Out Loud
p706
sg19
I39
sg20
I8
sg21
S'+1'
p707
sba(i__main__
EntrySentiment
p708
(dp709
g12
I01
sg13
I32
sg14
VVance Joy
p710
sg16
I34
sg17
VRiptide
p711
sg19
I40
sg20
I23
sg21
S'-6'
p712
sba(i__main__
EntrySentiment
p713
(dp714
g12
I01
sg13
I41
sg14
VBeyonce Featuring Nicki Minaj Or Chimamanda Ngozi Adichie
p715
sg16
I0
sg17
V***Flawless
p716
sg19
I41
sg20
I10
sg21
g369
sba(i__main__
EntrySentiment
p717
(dp718
g12
I01
sg13
I4
sg14
VAriana Grande Featuring Zedd
p719
sg16
I42
sg17
VBreak Free
p720
sg19
I42
sg20
I22
sg21
g22
sba(i__main__
EntrySentiment
p721
(dp722
g12
I01
sg13
I39
sg14
VDJ Khaled Featuring Chris Brown, August Alsina, Future & Jeremih
p723
sg16
I39
sg17
VHold You Down
p724
sg19
I43
sg20
I13
sg21
S'-4'
p725
sba(i__main__
EntrySentiment
p726
(dp727
g12
I01
sg13
I1
sg14
VIggy Azalea Featuring Charli XCX
p728
sg16
I48
sg17
VFancy
p729
sg19
I44
sg20
I39
sg21
S'+4'
p730
sba(i__main__
EntrySentiment
p731
(dp732
g12
I01
sg13
I13
sg14
VOne Direction
p733
sg16
I29
sg17
VSteal My Girl
p734
sg19
I45
sg20
I9
sg21
S'-16'
p735
sba(i__main__
EntrySentiment
p736
(dp737
g12
I01
sg13
I46
sg14
VDeJ Loaf
p738
sg16
I47
sg17
VTry Me
p739
sg19
I46
sg20
I6
sg21
S'+1'
p740
sba(i__main__
EntrySentiment
p741
(dp742
g12
I01
sg13
I45
sg14
VTim McGraw
p743
sg16
I45
sg17
VShotgun Rider
p744
sg19
I47
sg20
I9
sg21
S'-2'
p745
sba(i__main__
EntrySentiment
p746
(dp747
g12
I01
sg13
I27
sg14
VChris Brown Featuring Usher & Rick Ross
p748
sg16
I37
sg17
VNew Flame
p749
sg19
I48
sg20
I20
sg21
S'-11'
p750
sba(i__main__
EntrySentiment
p751
(dp752
g12
I01
sg13
I2
sg14
VNicki Minaj
p753
sg16
I54
sg17
VAnaconda
p754
sg19
I49
sg20
I17
sg21
S'+5'
p755
sba(i__main__
EntrySentiment
p756
(dp757
g12
I01
sg13
I23
sg14
VPitbull Featuring John Ryan
p758
sg16
I68
sg17
VFireball
p759
sg19
I50
sg20
I17
sg21
S'+18'
p760
sba(i__main__
EntrySentiment
p761
(dp762
g12
I01
sg13
I41
sg14
VMilky Chance
p763
sg16
I41
sg17
VStolen Dance
p764
sg19
I51
sg20
I19
sg21
S'-10'
p765
sba(i__main__
EntrySentiment
p766
(dp767
g12
I01
sg13
I24
sg14
VCarrie Underwood
p768
sg16
I38
sg17
VSomething In The Water
p769
sg19
I52
sg20
I9
sg21
S'-14'
p770
sba(i__main__
EntrySentiment
p771
(dp772
g12
I01
sg13
I53
sg14
VAlesso Featuring Tove Lo
p773
sg16
I53
sg17
VHeroes (We Could Be)
p774
sg19
I53
sg20
I9
sg21
g22
sba(i__main__
EntrySentiment
p775
(dp776
g12
I01
sg13
I54
sg14
VUsher Featuring Juicy J
p777
sg16
I95
sg17
VI Don't Mind
p778
sg19
I54
sg20
I2
sg21
S'+41'
p779
sba(i__main__
EntrySentiment
p780
(dp781
g12
I01
sg13
I43
sg14
VTrey Songz Featuring Nicki Minaj
p782
sg16
I44
sg17
VTouchin, Lovin
p783
sg19
I55
sg20
I13
sg21
S'-11'
p784
sba(i__main__
EntrySentiment
p785
(dp786
g12
I01
sg13
I53
sg14
VImagine Dragons
p787
sg16
I72
sg17
VI Bet My Life
p788
sg19
I56
sg20
I4
sg21
S'+16'
p789
sba(i__main__
EntrySentiment
p790
(dp791
g12
I01
sg13
I49
sg14
VKeith Urban
p792
sg16
I51
sg17
VSomewhere In My Car
p793
sg19
I57
sg20
I14
sg21
S'-6'
p794
sba(i__main__
EntrySentiment
p795
(dp796
g12
I01
sg13
I42
sg14
VT.I. Featuring Young Thug
p797
sg16
I57
sg17
VAbout The Money
p798
sg19
I58
sg20
I17
sg21
S'-1'
p799
sba(i__main__
EntrySentiment
p800
(dp801
g12
I01
sg13
I56
sg14
VMaddie & Tae
p802
sg16
I56
sg17
VGirl In A Country Song
p803
sg19
I59
sg20
I17
sg21
S'-3'
p804
sba(i__main__
EntrySentiment
p805
(dp806
g12
I01
sg13
I26
sg14
VPentatonix
p807
sg16
I26
sg17
VMary, Did You Know?
p808
sg19
I60
sg20
I2
sg21
S'-34'
p809
sba(i__main__
EntrySentiment
p810
(dp811
g12
I01
sg13
I61
sg14
VDavid Guetta Featuring Sam Martin
p812
sg16
I66
sg17
VDangerous
p813
sg19
I61
sg20
I6
sg21
S'+5'
p814
sba(i__main__
EntrySentiment
p815
(dp816
g12
I01
sg13
I36
sg14
VRae Sremmurd
p817
sg16
I60
sg17
VNo Flex Zone
p818
sg19
I62
sg20
I18
sg21
S'-2'
p819
sba(i__main__
EntrySentiment
p820
(dp821
g12
I01
sg13
I35
sg14
VDrake
p822
sg16
I59
sg17
V0 To 100 / The Catch Up
p823
sg19
I63
sg20
I19
sg21
S'-4'
p824
sba(i__main__
EntrySentiment
p825
(dp826
g12
I01
sg13
I61
sg14
VBrad Paisley
p827
sg16
I61
sg17
VPerfect Storm
p828
sg19
I64
sg20
I8
sg21
S'-3'
p829
sba(i__main__
EntrySentiment
p830
(dp831
g12
I01
sg13
I65
sg14
VAriana Grande
p832
sg16
I0
sg17
VSanta Tell Me
p833
sg19
I65
sg20
I1
sg21
g144
sba(i__main__
EntrySentiment
p834
(dp835
g12
I01
sg13
I40
sg14
VLittle Big Town
p836
sg16
I58
sg17
VDay Drinking
p837
sg19
I66
sg20
I19
sg21
S'-8'
p838
sba(i__main__
EntrySentiment
p839
(dp840
g12
I01
sg13
I52
sg14
VElla Henderson
p841
sg16
I52
sg17
VGhost
p842
sg19
I67
sg20
I5
sg21
S'-15'
p843
sba(i__main__
EntrySentiment
p844
(dp845
g12
I01
sg13
I68
sg14
VFlorida Georgia Line
p846
sg16
I73
sg17
VSun Daze
p847
sg19
I68
sg20
I6
sg21
S'+5'
p848
sba(i__main__
EntrySentiment
p849
(dp850
g12
I01
sg13
I69
sg14
VEric Church
p851
sg16
I71
sg17
VTalladega
p852
sg19
I69
sg20
I6
sg21
S'+2'
p853
sba(i__main__
EntrySentiment
p854
(dp855
g12
I01
sg13
I22
sg14
VEminem Featuring Sia
p856
sg16
I0
sg17
VGuts Over Fear
p857
sg19
I70
sg20
I3
sg21
g369
sba(i__main__
EntrySentiment
p858
(dp859
g12
I01
sg13
I71
sg14
VOneRepublic
p860
sg16
I0
sg17
VI Lived
p861
sg19
I71
sg20
I1
sg21
g144
sba(i__main__
EntrySentiment
p862
(dp863
g12
I01
sg13
I69
sg14
VAugust Alsina
p864
sg16
I75
sg17
VNo Love
p865
sg19
I72
sg20
I11
sg21
S'+3'
p866
sba(i__main__
EntrySentiment
p867
(dp868
g12
I01
sg13
I55
sg14
VColbie Caillat
p869
sg16
I74
sg17
VTry
p870
sg19
I73
sg20
I15
sg21
S'+1'
p871
sba(i__main__
EntrySentiment
p872
(dp873
g12
I01
sg13
I12
sg14
VJason Aldean
p874
sg16
I69
sg17
VBurnin' It Down
p875
sg19
I74
sg20
I19
sg21
S'-5'
p876
sba(i__main__
EntrySentiment
p877
(dp878
g12
I01
sg13
I18
sg14
VJennifer Lopez Featuring Iggy Azalea Or Pitbull
p879
sg16
I94
sg17
VBooty
p880
sg19
I75
sg20
I9
sg21
S'+19'
p881
sba(i__main__
EntrySentiment
p882
(dp883
g12
I01
sg13
I73
sg14
VBig & Rich
p884
sg16
I76
sg17
VLook At You
p885
sg19
I76
sg20
I13
sg21
g22
sba(i__main__
EntrySentiment
p886
(dp887
g12
I01
sg13
I43
sg14
VBlake Shelton
p888
sg16
I64
sg17
VNeon Light
p889
sg19
I77
sg20
I15
sg21
S'-13'
p890
sba(i__main__
EntrySentiment
p891
(dp892
g12
I01
sg13
I78
sg14
VLee Brice
p893
sg16
I82
sg17
VDrinking Class
p894
sg19
I78
sg20
I7
sg21
S'+4'
p895
sba(i__main__
EntrySentiment
p896
(dp897
g12
I00
sg13
I77
sg14
VParmalee
p898
sg16
I80
sg17
VClose Your Eyes
p899
sg19
I79
sg20
I10
sg21
S'+1'
p900
sba(i__main__
EntrySentiment
p901
(dp902
g12
I01
sg13
I39
sg14
VKendrick Lamar
p903
sg16
I62
sg17
g320
sg19
I80
sg20
I10
sg21
S'-18'
p904
sba(i__main__
EntrySentiment
p905
(dp906
g12
I01
sg13
I70
sg14
VNicki Minaj Featruing Skylar Grey
p907
sg16
I70
sg17
VBed Of Lies
p908
sg19
I81
sg20
I2
sg21
S'-11'
p909
sba(i__main__
EntrySentiment
p910
(dp911
g12
I01
sg13
I82
sg14
VKenny Chesney
p912
sg16
I86
sg17
VTil It's Gone
p913
sg19
I82
sg20
I5
sg21
S'+4'
p914
sba(i__main__
EntrySentiment
p915
(dp916
g12
I01
sg13
I83
sg14
VThe Weeknd
p917
sg16
I84
sg17
VOften
p918
sg19
I83
sg20
I7
sg21
S'+1'
p919
sba(i__main__
EntrySentiment
p920
(dp921
g12
I01
sg13
I84
sg14
VCraig Wayne Boyd
p922
sg16
I0
sg17
VI Walk The Line
p923
sg19
I84
sg20
I1
sg21
g144
sba(i__main__
EntrySentiment
p924
(dp925
g12
I01
sg13
I72
sg14
VNico & Vinz
p926
sg16
I81
sg17
VIn Your Arms
p927
sg19
I85
sg20
I7
sg21
S'-4'
p928
sba(i__main__
EntrySentiment
p929
(dp930
g12
I01
sg13
I85
sg14
VRaeLynn
p931
sg16
I88
sg17
VGod Made Girls
p932
sg19
I86
sg20
I6
sg21
S'+2'
p933
sba(i__main__
EntrySentiment
p934
(dp935
g12
I01
sg13
I84
sg14
VScotty McCreery
p936
sg16
I87
sg17
VFeelin' It
p937
sg19
I87
sg20
I10
sg21
g22
sba(i__main__
EntrySentiment
p938
(dp939
g12
I01
sg13
I88
sg14
VWALK THE MOON
p940
sg16
I0
sg17
VShut Up And Dance
p941
sg19
I88
sg20
I3
sg21
g369
sba(i__main__
EntrySentiment
p942
(dp943
g12
I01
sg13
I89
sg14
VLuke Bryan
p944
sg16
I0
sg17
VI See You
p945
sg19
I89
sg20
I1
sg21
g144
sba(i__main__
EntrySentiment
p946
(dp947
g12
I00
sg13
I86
sg14
VJessie J Featuring 2 Chainz
p948
sg16
I90
sg17
VBurnin' Up
p949
sg19
I90
sg20
I3
sg21
g22
sba(i__main__
EntrySentiment
p950
(dp951
g12
I01
sg13
I78
sg14
VKid Ink Featuring Usher & Tinashe
p952
sg16
I89
sg17
VBody Language
p953
sg19
I91
sg20
I8
sg21
S'-2'
p954
sba(i__main__
EntrySentiment
p955
(dp956
g12
I01
sg13
I92
sg14
VThomas Rhett
p957
sg16
I96
sg17
VMake Me Wanna
p958
sg19
I92
sg20
I3
sg21
S'+4'
p959
sba(i__main__
EntrySentiment
p960
(dp961
g12
I01
sg13
I93
sg14
VFifth Harmony
p962
sg16
I0
sg17
VSledgehammer
p963
sg19
I93
sg20
I1
sg21
g144
sba(i__main__
EntrySentiment
p964
(dp965
g12
I00
sg13
I94
sg14
VPitbull & Ne-Yo
p966
sg16
I0
sg17
VTime Of Our Lives
p967
sg19
I94
sg20
I1
sg21
g144
sba(i__main__
EntrySentiment
p968
(dp969
g12
I01
sg13
I24
sg14
VKaty Perry
p970
sg16
I91
sg17
VThis Is How We Do
p971
sg19
I95
sg20
I18
sg21
S'-4'
p972
sba(i__main__
EntrySentiment
p973
(dp974
g12
I01
sg13
I96
sg14
VNe-Yo Featuring Juicy J
p975
sg16
I0
sg17
VShe Knows
p976
sg19
I96
sg20
I2
sg21
g369
sba(i__main__
EntrySentiment
p977
(dp978
g12
I01
sg13
I95
sg14
VBrett Eldredge
p979
sg16
I97
sg17
VMean To Me
p980
sg19
I97
sg20
I4
sg21
g22
sba(i__main__
EntrySentiment
p981
(dp982
g12
I00
sg13
I46
sg14
VGwen Stefani
p983
sg16
I83
sg17
VBaby Don't Lie
p984
sg19
I98
sg20
I6
sg21
S'-15'
p985
sba(i__main__
EntrySentiment
p986
(dp987
g12
I01
sg13
I93
sg14
VMeghan Trainor
p988
sg16
I0
sg17
VDear Future Husband
p989
sg19
I99
sg20
I5
sg21
g369
sba(i__main__
EntrySentiment
p990
(dp991
g12
I01
sg13
I43
sg14
VLuke Bryan
p992
sg16
I93
sg17
VRoller Coaster
p993
sg19
I100
sg20
I20
sg21
S'-7'
p994
sbasg501
S'2014-12-13'
p995
sg503
(lp996
(g572
g573
Vhttp://www.songlyrics.com/james-newton-howard/the-hanging-tree-lyrics/
p997
tp998
a(g898
g899
g509
tp999
a(g948
g949
g513
tp1000
a(g966
g967
Vhttp://www.songlyrics.com/pitbull-ne-yo/time-of-our-lives-lyrics/
p1001
tp1002
a(g983
g984
g511
tp1003
asg515
I00
sba.