(lp0
(i__main__
ChartSentiment
p1
(dp2
S'complete'
p3
I01
sS'sentiment'
p4
F0.0027437373737373605
sS'name'
p5
S'hot-100'
p6
sS'limit'
p7
I1000
sS'entries'
p8
(lp9
(i__main__
EntrySentiment
p10
(dp11
S'success'
p12
I01
sS'peakPos'
p13
I1
sS'artist'
p14
VRihanna Featuring Calvin Harris
p15
sS'lastPos'
p16
I1
sS'title'
p17
VWe Found Love
p18
sS'rank'
p19
I1
sS'weeks'
p20
I9
sS'change'
p21
S'0'
p22
sba(i__main__
EntrySentiment
p23
(dp24
g12
I01
sg13
I2
sg14
VLMFAO
p25
sg16
I2
sg17
VSexy And I Know It
p26
sg19
I2
sg20
I12
sg21
g22
sba(i__main__
EntrySentiment
p27
(dp28
g12
I01
sg13
I1
sg14
VAdele
p29
sg16
I3
sg17
VSomeone Like You
p30
sg19
I3
sg20
I20
sg21
g22
sba(i__main__
EntrySentiment
p31
(dp32
g12
I01
sg13
I4
sg14
VDavid Guetta Featuring Usher
p33
sg16
I4
sg17
VWithout You
p34
sg19
I4
sg20
I12
sg21
g22
sba(i__main__
EntrySentiment
p35
(dp36
g12
I01
sg13
I5
sg14
VBruno Mars
p37
sg16
I9
sg17
VIt Will Rain
p38
sg19
I5
sg20
I8
sg21
S'+4'
p39
sba(i__main__
EntrySentiment
p40
(dp41
g12
I01
sg13
I1
sg14
VMaroon 5 Featuring Christina Aguilera
p42
sg16
I5
sg17
VMoves Like Jagger
p43
sg19
I6
sg20
I22
sg21
S'-1'
p44
sba(i__main__
EntrySentiment
p45
(dp46
g12
I01
sg13
I7
sg14
VFlo Rida
p47
sg16
I8
sg17
VGood Feeling
p48
sg19
I7
sg20
I8
sg21
S'+1'
p49
sba(i__main__
EntrySentiment
p50
(dp51
g12
I01
sg13
I4
sg14
VGym Class Heroes Featuring Adam Levine
p52
sg16
I6
sg17
VStereo Hearts
p53
sg19
I8
sg20
I23
sg21
S'-2'
p54
sba(i__main__
EntrySentiment
p55
(dp56
g12
I01
sg13
I9
sg14
VDrake Featuring Rihanna
p57
sg16
I0
sg17
VTake Care
p58
sg19
I9
sg20
I1
sg21
S'New'
p59
sba(i__main__
EntrySentiment
p60
(dp61
g12
I01
sg13
I10
sg14
VKaty Perry
p62
sg16
I15
sg17
VThe One That Got Away
p63
sg19
I10
sg20
I6
sg21
S'+5'
p64
sba(i__main__
EntrySentiment
p65
(dp66
g12
I01
sg13
I11
sg14
VGlee Cast
p67
sg16
I0
sg17
VRumour Has It / Someone Like You
p68
sg19
I11
sg20
I1
sg21
g59
sba(i__main__
EntrySentiment
p69
(dp70
g12
I01
sg13
I3
sg14
VFoster The People
p71
sg16
I7
sg17
VPumped Up Kicks
p72
sg19
I12
sg20
I30
sg21
S'-5'
p73
sba(i__main__
EntrySentiment
p74
(dp75
g12
I01
sg13
I7
sg14
VCobra Starship Featuring Sabi
p76
sg16
I11
sg17
VYou Make Me Feel...
p77
sg19
I13
sg20
I19
sg21
S'-2'
p78
sba(i__main__
EntrySentiment
p79
(dp80
g12
I01
sg13
I14
sg14
VRihanna
p81
sg16
I73
sg17
VYou Da One
p82
sg19
I14
sg20
I2
sg21
S'+59'
p83
sba(i__main__
EntrySentiment
p84
(dp85
g12
I01
sg13
I11
sg14
VT-Pain Featuring Wiz Khalifa & Lily Allen
p86
sg16
I12
sg17
V5 O'Clock
p87
sg19
I15
sg20
I8
sg21
S'-3'
p88
sba(i__main__
EntrySentiment
p89
(dp90
g12
I01
sg13
I1
sg14
VLMFAO Featuring Lauren Bennett & GoonRock
p91
sg16
I14
sg17
VParty Rock Anthem
p92
sg19
I16
sg20
I35
sg21
S'-2'
p93
sba(i__main__
EntrySentiment
p94
(dp95
g12
I00
sg13
I16
sg14
VJay Z  Kanye West
p96
sg16
I17
sg17
VNi**as in Paris
p97
sg19
I17
sg20
I15
sg21
g22
sba(i__main__
EntrySentiment
p98
(dp99
g12
I01
sg13
I18
sg14
VDrake Featuring Lil Wayne
p100
sg16
I0
sg17
VThe Motto
p101
sg19
I18
sg20
I1
sg21
g59
sba(i__main__
EntrySentiment
p102
(dp103
g12
I01
sg13
I19
sg14
VJ. Cole
p104
sg16
I22
sg17
VWork Out
p105
sg19
I19
sg20
I12
sg21
S'+3'
p106
sba(i__main__
EntrySentiment
p107
(dp108
g12
I01
sg13
I10
sg14
VKelly Clarkson
p109
sg16
I19
sg17
VMr. Know It All
p110
sg19
I20
sg20
I11
sg21
S'-1'
p111
sba(i__main__
EntrySentiment
p112
(dp113
g12
I01
sg13
I20
sg14
VBig Sean Featuring Nicki Minaj
p114
sg16
I20
sg17
VDance (A$$)
p115
sg19
I21
sg20
I7
sg21
S'-1'
p116
sba(i__main__
EntrySentiment
p117
(dp118
g12
I01
sg13
I11
sg14
VDev
p119
sg16
I18
sg17
VIn The Dark
p120
sg19
I22
sg20
I16
sg21
S'-4'
p121
sba(i__main__
EntrySentiment
p122
(dp123
g12
I01
sg13
I17
sg14
VJason Derulo
p124
sg16
I21
sg17
VIt Girl
p125
sg19
I23
sg20
I15
sg21
S'-2'
p126
sba(i__main__
EntrySentiment
p127
(dp128
g12
I01
sg13
I1
sg14
VPitbull Featuring Ne-Yo, Afrojack & Nayer
p129
sg16
I25
sg17
VGive Me Everything
p130
sg19
I24
sg20
I34
sg21
S'+1'
p131
sba(i__main__
EntrySentiment
p132
(dp133
g12
I01
sg13
I21
sg14
VNicki Minaj Featuring Rihanna
p134
sg16
I24
sg17
VFly
p135
sg19
I25
sg20
I13
sg21
S'-1'
p136
sba(i__main__
EntrySentiment
p137
(dp138
g12
I01
sg13
I3
sg14
VNicki Minaj
p139
sg16
I23
sg17
VSuper Bass
p140
sg19
I26
sg20
I30
sg21
S'-3'
p141
sba(i__main__
EntrySentiment
p142
(dp143
g12
I01
sg13
I7
sg14
VLady Antebellum
p144
sg16
I28
sg17
VJust A Kiss
p145
sg19
I27
sg20
I29
sg21
S'+1'
p146
sba(i__main__
EntrySentiment
p147
(dp148
g12
I01
sg13
I3
sg14
VLil Wayne Featuring Drake
p149
sg16
I29
sg17
VShe Will
p150
sg19
I28
sg20
I14
sg21
S'+1'
p151
sba(i__main__
EntrySentiment
p152
(dp153
g12
I01
sg13
I29
sg14
VLuke Bryan
p154
sg16
I35
sg17
VI Don't Want This Night To End
p155
sg19
I29
sg20
I8
sg21
S'+6'
p156
sba(i__main__
EntrySentiment
p157
(dp158
g12
I01
sg13
I13
sg14
VDrake
p159
sg16
I16
sg17
VHeadlines
p160
sg19
I30
sg20
I15
sg21
S'-14'
p161
sba(i__main__
EntrySentiment
p162
(dp163
g12
I01
sg13
I22
sg14
VBlake Shelton
p164
sg16
I27
sg17
VGod Gave Me You
p165
sg19
I31
sg20
I19
sg21
S'-4'
p166
sba(i__main__
EntrySentiment
p167
(dp168
g12
I01
sg13
I15
sg14
VColdplay
p169
sg16
I33
sg17
VParadise
p170
sg19
I32
sg20
I10
sg21
S'+1'
p171
sba(i__main__
EntrySentiment
p172
(dp173
g12
I01
sg13
I6
sg14
VLady Gaga
p174
sg16
I31
sg17
VYou And I
p175
sg19
I33
sg20
I16
sg21
S'-2'
p176
sba(i__main__
EntrySentiment
p177
(dp178
g12
I01
sg13
I32
sg14
VLady Antebellum
p179
sg16
I32
sg17
VWe Owned The Night
p180
sg19
I34
sg20
I14
sg21
S'-2'
p181
sba(i__main__
EntrySentiment
p182
(dp183
g12
I01
sg13
I35
sg14
VGavin DeGraw
p184
sg16
I45
sg17
VNot Over You
p185
sg19
I35
sg20
I15
sg21
S'+10'
p186
sba(i__main__
EntrySentiment
p187
(dp188
g12
I01
sg13
I1
sg14
VAdele
p189
sg16
I34
sg17
VRolling In The Deep
p190
sg19
I36
sg20
I46
sg21
S'-2'
p191
sba(i__main__
EntrySentiment
p192
(dp193
g12
I01
sg13
I37
sg14
VToby Keith
p194
sg16
I48
sg17
VRed Solo Cup
p195
sg19
I37
sg20
I4
sg21
S'+11'
p196
sba(i__main__
EntrySentiment
p197
(dp198
g12
I01
sg13
I8
sg14
VOneRepublic
p199
sg16
I41
sg17
VGood Life
p200
sg19
I38
sg20
I34
sg21
S'+3'
p201
sba(i__main__
EntrySentiment
p202
(dp203
g12
I01
sg13
I21
sg14
VAlexandra Stan
p204
sg16
I36
sg17
VMr. Saxobeat
p205
sg19
I39
sg20
I19
sg21
S'-3'
p206
sba(i__main__
EntrySentiment
p207
(dp208
g12
I01
sg13
I40
sg14
VJason Aldean
p209
sg16
I42
sg17
VTattoos On This Town
p210
sg19
I40
sg20
I9
sg21
S'+2'
p211
sba(i__main__
EntrySentiment
p212
(dp213
g12
I01
sg13
I14
sg14
VThe Band Perry
p214
sg16
I30
sg17
VIf I Die Young
p215
sg19
I41
sg20
I52
sg21
S'-11'
p216
sba(i__main__
EntrySentiment
p217
(dp218
g12
I01
sg13
I30
sg14
VEli Young Band
p219
sg16
I38
sg17
VCrazy Girl
p220
sg19
I42
sg20
I36
sg21
S'-4'
p221
sba(i__main__
EntrySentiment
p222
(dp223
g12
I01
sg13
I43
sg14
VChristina Perri
p224
sg16
I46
sg17
VA Thousand Years
p225
sg19
I43
sg20
I5
sg21
S'+3'
p226
sba(i__main__
EntrySentiment
p227
(dp228
g12
I01
sg13
I44
sg14
VNickelback
p229
sg16
I60
sg17
VWhen We Stand Together
p230
sg19
I44
sg20
I8
sg21
S'+16'
p231
sba(i__main__
EntrySentiment
p232
(dp233
g12
I01
sg13
I44
sg14
VMiranda Lambert
p234
sg16
I44
sg17
VBaggage Claim
p235
sg19
I45
sg20
I15
sg21
S'-1'
p236
sba(i__main__
EntrySentiment
p237
(dp238
g12
I01
sg13
I35
sg14
VSelena Gomez & The Scene
p239
sg16
I50
sg17
VLove You Like A Love Song
p240
sg19
I46
sg20
I22
sg21
S'+4'
p241
sba(i__main__
EntrySentiment
p242
(dp243
g12
I01
sg13
I37
sg14
VThe Band Perry
p244
sg16
I37
sg17
VAll Your Life
p245
sg19
I47
sg20
I11
sg21
S'-10'
p246
sba(i__main__
EntrySentiment
p247
(dp248
g12
I01
sg13
I43
sg14
VRascal Flatts Featuring Natasha Bedingfield
p249
sg16
I43
sg17
VEasy
p250
sg19
I48
sg20
I17
sg21
S'-5'
p251
sba(i__main__
EntrySentiment
p252
(dp253
g12
I01
sg13
I44
sg14
VZac Brown Band
p254
sg16
I51
sg17
VKeep Me In Mind
p255
sg19
I49
sg20
I8
sg21
S'+2'
p256
sba(i__main__
EntrySentiment
p257
(dp258
g12
I01
sg13
I50
sg14
VBrantley Gilbert
p259
sg16
I52
sg17
VCountry Must Be Country Wide
p260
sg19
I50
sg20
I21
sg21
S'+2'
p261
sba(i__main__
EntrySentiment
p262
(dp263
g12
I01
sg13
I40
sg14
VEric Church
p264
sg16
I40
sg17
VDrink In My Hand
p265
sg19
I51
sg20
I9
sg21
S'-11'
p266
sba(i__main__
EntrySentiment
p267
(dp268
g12
I01
sg13
I52
sg14
VBeyonce Featuring Andre 3000
p269
sg16
I54
sg17
VParty
p270
sg19
I52
sg20
I7
sg21
S'+2'
p271
sba(i__main__
EntrySentiment
p272
(dp273
g12
I01
sg13
I10
sg14
VTaylor Swift
p274
sg16
I10
sg17
VIf This Was A Movie
p275
sg19
I53
sg20
I2
sg21
S'-43'
p276
sba(i__main__
EntrySentiment
p277
(dp278
g12
I01
sg13
I17
sg14
VTaylor Swift
p279
sg16
I49
sg17
VSparks Fly
p280
sg19
I54
sg20
I17
sg21
S'-5'
p281
sba(i__main__
EntrySentiment
p282
(dp283
g12
I01
sg13
I55
sg14
VJessie J
p284
sg16
I58
sg17
VDomino
p285
sg19
I55
sg20
I6
sg21
S'+3'
p286
sba(i__main__
EntrySentiment
p287
(dp288
g12
I01
sg13
I13
sg14
VTaylor Swift
p289
sg16
I13
sg17
VOurs
p290
sg19
I56
sg20
I2
sg21
S'-43'
p291
sba(i__main__
EntrySentiment
p292
(dp293
g12
I01
sg13
I10
sg14
VSnoop Dogg & Wiz Khalifa Featuring Bruno Mars
p294
sg16
I59
sg17
VYoung, Wild & Free
p295
sg19
I57
sg20
I6
sg21
S'+2'
p296
sba(i__main__
EntrySentiment
p297
(dp298
g12
I01
sg13
I58
sg14
VDavid Nail
p299
sg16
I74
sg17
VLet It Rain
p300
sg19
I58
sg20
I10
sg21
S'+16'
p301
sba(i__main__
EntrySentiment
p302
(dp303
g12
I01
sg13
I59
sg14
VWale Featuring Miguel
p304
sg16
I65
sg17
VLotus Flower Bomb
p305
sg19
I59
sg20
I4
sg21
S'+6'
p306
sba(i__main__
EntrySentiment
p307
(dp308
g12
I01
sg13
I60
sg14
VAdele
p309
sg16
I0
sg17
VRumour Has It
p310
sg19
I60
sg20
I4
sg21
S'Re-Entry'
p311
sba(i__main__
EntrySentiment
p312
(dp313
g12
I01
sg13
I49
sg14
VWale Featuring Jeremih & Rick Ross
p314
sg16
I57
sg17
VThat Way
p315
sg19
I61
sg20
I12
sg21
S'-4'
p316
sba(i__main__
EntrySentiment
p317
(dp318
g12
I01
sg13
I32
sg14
VThe Script
p319
sg16
I56
sg17
VNothing
p320
sg19
I62
sg20
I15
sg21
S'-6'
p321
sba(i__main__
EntrySentiment
p322
(dp323
g12
I01
sg13
I62
sg14
VColbie Caillat
p324
sg16
I67
sg17
VBrighter Than The Sun
p325
sg19
I63
sg20
I14
sg21
S'+4'
p326
sba(i__main__
EntrySentiment
p327
(dp328
g12
I01
sg13
I64
sg14
VChris Young
p329
sg16
I69
sg17
VYou
p330
sg19
I64
sg20
I5
sg21
S'+5'
p331
sba(i__main__
EntrySentiment
p332
(dp333
g12
I01
sg13
I32
sg14
VBig Sean Featuring Kanye West & Roscoe Dash
p334
sg16
I62
sg17
VMarvin & Chardonnay
p335
sg19
I65
sg20
I18
sg21
S'-3'
p336
sba(i__main__
EntrySentiment
p337
(dp338
g12
I01
sg13
I66
sg14
VAvicii
p339
sg16
I0
sg17
VLevels
p340
sg19
I66
sg20
I1
sg21
g59
sba(i__main__
EntrySentiment
p341
(dp342
g12
I01
sg13
I67
sg14
VDrake
p343
sg16
I0
sg17
VHate Sleeping Alone
p344
sg19
I67
sg20
I1
sg21
g59
sba(i__main__
EntrySentiment
p345
(dp346
g12
I01
sg13
I43
sg14
VThe Fray
p347
sg16
I93
sg17
VHeartbeat
p348
sg19
I68
sg20
I5
sg21
S'+25'
p349
sba(i__main__
EntrySentiment
p350
(dp351
g12
I01
sg13
I69
sg14
VGlee Cast
p352
sg16
I0
sg17
VYou And  I / You And I
p353
sg19
I69
sg20
I1
sg21
g59
sba(i__main__
EntrySentiment
p354
(dp355
g12
I01
sg13
I51
sg14
VHot Chelle Rae Featuring New Boyz
p356
sg16
I78
sg17
VI Like It Like That
p357
sg19
I70
sg20
I7
sg21
S'+8'
p358
sba(i__main__
EntrySentiment
p359
(dp360
g12
I01
sg13
I71
sg14
VThompson Square
p361
sg16
I76
sg17
VI Got You
p362
sg19
I71
sg20
I14
sg21
S'+5'
p363
sba(i__main__
EntrySentiment
p364
(dp365
g12
I01
sg13
I9
sg14
VDrake Featuring Nicki Minaj
p366
sg16
I39
sg17
VMake Me Proud
p367
sg19
I72
sg20
I6
sg21
S'-33'
p368
sba(i__main__
EntrySentiment
p369
(dp370
g12
I01
sg13
I71
sg14
VBeyonce
p371
sg16
I75
sg17
VCountdown
p372
sg19
I73
sg20
I6
sg21
S'+2'
p373
sba(i__main__
EntrySentiment
p374
(dp375
g12
I01
sg13
I72
sg14
VAdele
p376
sg16
I89
sg17
VSet Fire To The Rain
p377
sg19
I74
sg20
I12
sg21
S'+15'
p378
sba(i__main__
EntrySentiment
p379
(dp380
g12
I01
sg13
I65
sg14
VAce Hood Featuring Chris Brown
p381
sg16
I71
sg17
VBody 2 Body
p382
sg19
I75
sg20
I10
sg21
S'-4'
p383
sba(i__main__
EntrySentiment
p384
(dp385
g12
I01
sg13
I61
sg14
VMartina McBride
p386
sg16
I61
sg17
VI'm Gonna Love You Through It
p387
sg19
I76
sg20
I7
sg21
S'-15'
p388
sba(i__main__
EntrySentiment
p389
(dp390
g12
I01
sg13
I72
sg14
VJerrod Niemann
p391
sg16
I72
sg17
VOne More Drinkin' Song
p392
sg19
I77
sg20
I17
sg21
S'-5'
p393
sba(i__main__
EntrySentiment
p394
(dp395
g12
I01
sg13
I7
sg14
VRihanna
p396
sg16
I66
sg17
VCheers (Drink To That)
p397
sg19
I78
sg20
I17
sg21
S'-12'
p398
sba(i__main__
EntrySentiment
p399
(dp400
g12
I01
sg13
I59
sg14
VPitbull Featuring Chris Brown
p401
sg16
I92
sg17
VInternational Love
p402
sg19
I79
sg20
I3
sg21
S'+13'
p403
sba(i__main__
EntrySentiment
p404
(dp405
g12
I01
sg13
I80
sg14
VGlee Cast
p406
sg16
I0
sg17
VI Can't Go For That / You Make My Dreams
p407
sg19
I80
sg20
I1
sg21
g59
sba(i__main__
EntrySentiment
p408
(dp409
g12
I01
sg13
I55
sg14
VBritney Spears
p410
sg16
I64
sg17
VCriminal
p411
sg19
I81
sg20
I6
sg21
S'-17'
p412
sba(i__main__
EntrySentiment
p413
(dp414
g12
I01
sg13
I7
sg14
VB.o.B Featuring Lil Wayne
p415
sg16
I80
sg17
VStrange Clouds
p416
sg19
I82
sg20
I8
sg21
S'-2'
p417
sba(i__main__
EntrySentiment
p418
(dp419
g12
I01
sg13
I83
sg14
VRick Ross Featuring Nicki Minaj
p420
sg16
I84
sg17
VYou The Boss
p421
sg19
I83
sg20
I5
sg21
S'+1'
p422
sba(i__main__
EntrySentiment
p423
(dp424
g12
I01
sg13
I82
sg14
VAWOLNATION
p425
sg16
I96
sg17
VSail
p426
sg19
I84
sg20
I14
sg21
S'+12'
p427
sba(i__main__
EntrySentiment
p428
(dp429
g12
I01
sg13
I70
sg14
VDierks Bentley
p430
sg16
I70
sg17
VHome
p431
sg19
I85
sg20
I2
sg21
S'-15'
p432
sba(i__main__
EntrySentiment
p433
(dp434
g12
I01
sg13
I86
sg14
VGlee Cast
p435
sg16
I0
sg17
VHit Me With Your Best Shot / One Way Or Another
p436
sg19
I86
sg20
I1
sg21
g59
sba(i__main__
EntrySentiment
p437
(dp438
g12
I01
sg13
I87
sg14
VBreathe Carolina
p439
sg16
I87
sg17
VBlackout
p440
sg19
I87
sg20
I3
sg21
g22
sba(i__main__
EntrySentiment
p441
(dp442
g12
I01
sg13
I12
sg14
VJay Z  Kanye West Featuring Otis Redding
p443
sg16
I77
sg17
VOtis
p444
sg19
I88
sg20
I18
sg21
S'-11'
p445
sba(i__main__
EntrySentiment
p446
(dp447
g12
I01
sg13
I89
sg14
VDrake Featuring Birdman
p448
sg16
I0
sg17
VWe'll Be Fine
p449
sg19
I89
sg20
I1
sg21
g59
sba(i__main__
EntrySentiment
p450
(dp451
g12
I01
sg13
I82
sg14
VFlorence + The Machine
p452
sg16
I88
sg17
VShake It Out
p453
sg19
I90
sg20
I4
sg21
S'-2'
p454
sba(i__main__
EntrySentiment
p455
(dp456
g12
I01
sg13
I83
sg14
VRomeo Santos Featuring Usher
p457
sg16
I83
sg17
VPromise
p458
sg19
I91
sg20
I5
sg21
S'-8'
p459
sba(i__main__
EntrySentiment
p460
(dp461
g12
I01
sg13
I92
sg14
VDrake Featuring Lil Wayne
p462
sg16
I0
sg17
VHYFR (Hell Yeah F*****g Right)
p463
sg19
I92
sg20
I1
sg21
g59
sba(i__main__
EntrySentiment
p464
(dp465
g12
I01
sg13
I93
sg14
VKenny Chesney
p466
sg16
I95
sg17
VReality
p467
sg19
I93
sg20
I3
sg21
S'+2'
p468
sba(i__main__
EntrySentiment
p469
(dp470
g12
I01
sg13
I91
sg14
VThe Black Keys
p471
sg16
I0
sg17
VLonely Boy
p472
sg19
I94
sg20
I2
sg21
g311
sba(i__main__
EntrySentiment
p473
(dp474
g12
I01
sg13
I63
sg14
VBlake Shelton
p475
sg16
I63
sg17
VFootloose
p476
sg19
I95
sg20
I2
sg21
S'-32'
p477
sba(i__main__
EntrySentiment
p478
(dp479
g12
I01
sg13
I11
sg14
VJustin Bieber
p480
sg16
I85
sg17
VMistletoe
p481
sg19
I96
sg20
I4
sg21
S'-11'
p482
sba(i__main__
EntrySentiment
p483
(dp484
g12
I01
sg13
I79
sg14
VLady Gaga
p485
sg16
I0
sg17
VMarry The Night
p486
sg19
I97
sg20
I2
sg21
g311
sba(i__main__
EntrySentiment
p487
(dp488
g12
I01
sg13
I84
sg14
VDarius Rucker
p489
sg16
I94
sg17
VI Got Nothin'
p490
sg19
I98
sg20
I9
sg21
S'-4'
p491
sba(i__main__
EntrySentiment
p492
(dp493
g12
I01
sg13
I64
sg14
VKelly Clarkson
p494
sg16
I0
sg17
VWhat Doesn't Kill You (Stronger)
p495
sg19
I99
sg20
I2
sg21
g311
sba(i__main__
EntrySentiment
p496
(dp497
g12
I01
sg13
I100
sg14
VDrake
p498
sg16
I0
sg17
VShot For Me
p499
sg19
I100
sg20
I1
sg21
g59
sbasS'date'
p500
S'2011-12-03'
p501
sS'no_lyrics'
p502
(lp503
(g96
g97
Vhttp://www.songlyrics.com/jay-z-kanye-west/ni**as-in-paris-lyrics/
p504
tp505
asS'latest'
p506
I00
sba(i__main__
ChartSentiment
p507
(dp508
g3
I01
sg4
F-0.018041101010101018
sg5
g6
sg7
I1000
sg8
(lp509
(i__main__
EntrySentiment
p510
(dp511
g12
I01
sg13
I1
sg14
VRihanna Featuring Calvin Harris
p512
sg16
I1
sg17
VWe Found Love
p513
sg19
I1
sg20
I10
sg21
g22
sba(i__main__
EntrySentiment
p514
(dp515
g12
I01
sg13
I2
sg14
VLMFAO
p516
sg16
I2
sg17
VSexy And I Know It
p517
sg19
I2
sg20
I13
sg21
g22
sba(i__main__
EntrySentiment
p518
(dp519
g12
I01
sg13
I3
sg14
VBruno Mars
p520
sg16
I5
sg17
VIt Will Rain
p521
sg19
I3
sg20
I9
sg21
S'+2'
p522
sba(i__main__
EntrySentiment
p523
(dp524
g12
I01
sg13
I1
sg14
VMaroon 5 Featuring Christina Aguilera
p525
sg16
I6
sg17
VMoves Like Jagger
p526
sg19
I4
sg20
I23
sg21
S'+2'
p527
sba(i__main__
EntrySentiment
p528
(dp529
g12
I01
sg13
I1
sg14
VAdele
p530
sg16
I3
sg17
VSomeone Like You
p531
sg19
I5
sg20
I21
sg21
S'-2'
p532
sba(i__main__
EntrySentiment
p533
(dp534
g12
I01
sg13
I4
sg14
VDavid Guetta Featuring Usher
p535
sg16
I4
sg17
VWithout You
p536
sg19
I6
sg20
I13
sg21
S'-2'
p537
sba(i__main__
EntrySentiment
p538
(dp539
g12
I01
sg13
I4
sg14
VGym Class Heroes Featuring Adam Levine
p540
sg16
I8
sg17
VStereo Hearts
p541
sg19
I7
sg20
I24
sg21
S'+1'
p542
sba(i__main__
EntrySentiment
p543
(dp544
g12
I01
sg13
I7
sg14
VFlo Rida
p545
sg16
I7
sg17
VGood Feeling
p546
sg19
I8
sg20
I9
sg21
S'-1'
p547
sba(i__main__
EntrySentiment
p548
(dp549
g12
I01
sg13
I9
sg14
VKaty Perry
p550
sg16
I10
sg17
VThe One That Got Away
p551
sg19
I9
sg20
I7
sg21
S'+1'
p552
sba(i__main__
EntrySentiment
p553
(dp554
g12
I01
sg13
I1
sg14
VLMFAO Featuring Lauren Bennett & GoonRock
p555
sg16
I16
sg17
VParty Rock Anthem
p556
sg19
I10
sg20
I36
sg21
S'+6'
p557
sba(i__main__
EntrySentiment
p558
(dp559
g12
I01
sg13
I11
sg14
VT-Pain Featuring Wiz Khalifa & Lily Allen
p560
sg16
I15
sg17
V5 O'Clock
p561
sg19
I11
sg20
I9
sg21
S'+4'
p562
sba(i__main__
EntrySentiment
p563
(dp564
g12
I01
sg13
I7
sg14
VCobra Starship Featuring Sabi
p565
sg16
I13
sg17
VYou Make Me Feel...
p566
sg19
I12
sg20
I20
sg21
S'+1'
p567
sba(i__main__
EntrySentiment
p568
(dp569
g12
I01
sg13
I3
sg14
VFoster The People
p570
sg16
I12
sg17
VPumped Up Kicks
p571
sg19
I13
sg20
I31
sg21
S'-1'
p572
sba(i__main__
EntrySentiment
p573
(dp574
g12
I01
sg13
I13
sg14
VDrake
p575
sg16
I30
sg17
VHeadlines
p576
sg19
I14
sg20
I16
sg21
S'+16'
p577
sba(i__main__
EntrySentiment
p578
(dp579
g12
I00
sg13
I15
sg14
VJay Z  Kanye West
p580
sg16
I17
sg17
VNi**as in Paris
p581
sg19
I15
sg20
I16
sg21
S'+2'
p582
sba(i__main__
EntrySentiment
p583
(dp584
g12
I01
sg13
I10
sg14
VKelly Clarkson
p585
sg16
I20
sg17
VMr. Know It All
p586
sg19
I16
sg20
I12
sg21
S'+4'
p587
sba(i__main__
EntrySentiment
p588
(dp589
g12
I01
sg13
I17
sg14
VJ. Cole
p590
sg16
I19
sg17
VWork Out
p591
sg19
I17
sg20
I13
sg21
S'+2'
p592
sba(i__main__
EntrySentiment
p593
(dp594
g12
I01
sg13
I18
sg14
VBig Sean Featuring Nicki Minaj
p595
sg16
I21
sg17
VDance (A$$)
p596
sg19
I18
sg20
I8
sg21
S'+3'
p597
sba(i__main__
EntrySentiment
p598
(dp599
g12
I01
sg13
I19
sg14
VNicki Minaj Featuring Rihanna
p600
sg16
I25
sg17
VFly
p601
sg19
I19
sg20
I14
sg21
S'+6'
p602
sba(i__main__
EntrySentiment
p603
(dp604
g12
I01
sg13
I3
sg14
VNicki Minaj
p605
sg16
I26
sg17
VSuper Bass
p606
sg19
I20
sg20
I31
sg21
S'+6'
p607
sba(i__main__
EntrySentiment
p608
(dp609
g12
I01
sg13
I11
sg14
VDev
p610
sg16
I22
sg17
VIn The Dark
p611
sg19
I21
sg20
I17
sg21
S'+1'
p612
sba(i__main__
EntrySentiment
p613
(dp614
g12
I01
sg13
I14
sg14
VRihanna
p615
sg16
I14
sg17
VYou Da One
p616
sg19
I22
sg20
I3
sg21
S'-8'
p617
sba(i__main__
EntrySentiment
p618
(dp619
g12
I01
sg13
I1
sg14
VPitbull Featuring Ne-Yo, Afrojack & Nayer
p620
sg16
I24
sg17
VGive Me Everything
p621
sg19
I23
sg20
I35
sg21
S'+1'
p622
sba(i__main__
EntrySentiment
p623
(dp624
g12
I01
sg13
I17
sg14
VJason Derulo
p625
sg16
I23
sg17
VIt Girl
p626
sg19
I24
sg20
I16
sg21
S'-1'
p627
sba(i__main__
EntrySentiment
p628
(dp629
g12
I01
sg13
I9
sg14
VDrake Featuring Rihanna
p630
sg16
I9
sg17
VTake Care
p631
sg19
I25
sg20
I2
sg21
S'-16'
p632
sba(i__main__
EntrySentiment
p633
(dp634
g12
I01
sg13
I26
sg14
VGavin DeGraw
p635
sg16
I35
sg17
VNot Over You
p636
sg19
I26
sg20
I16
sg21
S'+9'
p637
sba(i__main__
EntrySentiment
p638
(dp639
g12
I01
sg13
I7
sg14
VLady Antebellum
p640
sg16
I27
sg17
VJust A Kiss
p641
sg19
I27
sg20
I30
sg21
g22
sba(i__main__
EntrySentiment
p642
(dp643
g12
I01
sg13
I28
sg14
VLuke Bryan
p644
sg16
I29
sg17
VI Don't Want This Night To End
p645
sg19
I28
sg20
I9
sg21
S'+1'
p646
sba(i__main__
EntrySentiment
p647
(dp648
g12
I01
sg13
I6
sg14
VLady Gaga
p649
sg16
I33
sg17
VYou And I
p650
sg19
I29
sg20
I17
sg21
S'+4'
p651
sba(i__main__
EntrySentiment
p652
(dp653
g12
I01
sg13
I15
sg14
VColdplay
p654
sg16
I32
sg17
VParadise
p655
sg19
I30
sg20
I11
sg21
S'+2'
p656
sba(i__main__
EntrySentiment
p657
(dp658
g12
I01
sg13
I31
sg14
VRihanna Featuring Jay-Z
p659
sg16
I0
sg17
VTalk That Talk
p660
sg19
I31
sg20
I1
sg21
g59
sba(i__main__
EntrySentiment
p661
(dp662
g12
I01
sg13
I18
sg14
VDrake Featuring Lil Wayne
p663
sg16
I18
sg17
VThe Motto
p664
sg19
I32
sg20
I2
sg21
S'-14'
p665
sba(i__main__
EntrySentiment
p666
(dp667
g12
I01
sg13
I3
sg14
VLil Wayne Featuring Drake
p668
sg16
I28
sg17
VShe Will
p669
sg19
I33
sg20
I15
sg21
S'-5'
p670
sba(i__main__
EntrySentiment
p671
(dp672
g12
I01
sg13
I32
sg14
VLady Antebellum
p673
sg16
I34
sg17
VWe Owned The Night
p674
sg19
I34
sg20
I15
sg21
g22
sba(i__main__
EntrySentiment
p675
(dp676
g12
I01
sg13
I35
sg14
VToby Keith
p677
sg16
I37
sg17
VRed Solo Cup
p678
sg19
I35
sg20
I5
sg21
S'+2'
p679
sba(i__main__
EntrySentiment
p680
(dp681
g12
I01
sg13
I36
sg14
Vwill.i.am Featuring Mick Jagger & Jennifer Lopez
p682
sg16
I0
sg17
VT.H.E. (The Hardest Ever)
p683
sg19
I36
sg20
I1
sg21
g59
sba(i__main__
EntrySentiment
p684
(dp685
g12
I01
sg13
I22
sg14
VBlake Shelton
p686
sg16
I31
sg17
VGod Gave Me You
p687
sg19
I37
sg20
I20
sg21
S'-6'
p688
sba(i__main__
EntrySentiment
p689
(dp690
g12
I01
sg13
I1
sg14
VAdele
p691
sg16
I36
sg17
VRolling In The Deep
p692
sg19
I38
sg20
I47
sg21
S'-2'
p693
sba(i__main__
EntrySentiment
p694
(dp695
g12
I01
sg13
I9
sg14
VDrake Featuring Nicki Minaj
p696
sg16
I72
sg17
VMake Me Proud
p697
sg19
I39
sg20
I7
sg21
S'+33'
p698
sba(i__main__
EntrySentiment
p699
(dp700
g12
I01
sg13
I35
sg14
VSelena Gomez & The Scene
p701
sg16
I46
sg17
VLove You Like A Love Song
p702
sg19
I40
sg20
I23
sg21
S'+6'
p703
sba(i__main__
EntrySentiment
p704
(dp705
g12
I01
sg13
I8
sg14
VOneRepublic
p706
sg16
I38
sg17
VGood Life
p707
sg19
I41
sg20
I35
sg21
S'-3'
p708
sba(i__main__
EntrySentiment
p709
(dp710
g12
I01
sg13
I40
sg14
VJason Aldean
p711
sg16
I40
sg17
VTattoos On This Town
p712
sg19
I42
sg20
I10
sg21
S'-2'
p713
sba(i__main__
EntrySentiment
p714
(dp715
g12
I01
sg13
I14
sg14
VThe Band Perry
p716
sg16
I41
sg17
VIf I Die Young
p717
sg19
I43
sg20
I53
sg21
S'-2'
p718
sba(i__main__
EntrySentiment
p719
(dp720
g12
I01
sg13
I21
sg14
VAlexandra Stan
p721
sg16
I39
sg17
VMr. Saxobeat
p722
sg19
I44
sg20
I20
sg21
S'-5'
p723
sba(i__main__
EntrySentiment
p724
(dp725
g12
I01
sg13
I44
sg14
VZac Brown Band
p726
sg16
I49
sg17
VKeep Me In Mind
p727
sg19
I45
sg20
I9
sg21
S'+4'
p728
sba(i__main__
EntrySentiment
p729
(dp730
g12
I01
sg13
I43
sg14
VRascal Flatts Featuring Natasha Bedingfield
p731
sg16
I48
sg17
VEasy
p732
sg19
I46
sg20
I18
sg21
S'+2'
p733
sba(i__main__
EntrySentiment
p734
(dp735
g12
I01
sg13
I10
sg14
VSnoop Dogg & Wiz Khalifa Featuring Bruno Mars
p736
sg16
I57
sg17
VYoung, Wild & Free
p737
sg19
I47
sg20
I7
sg21
S'+10'
p738
sba(i__main__
EntrySentiment
p739
(dp740
g12
I01
sg13
I44
sg14
VNickelback
p741
sg16
I44
sg17
VWhen We Stand Together
p742
sg19
I48
sg20
I9
sg21
S'-4'
p743
sba(i__main__
EntrySentiment
p744
(dp745
g12
I01
sg13
I44
sg14
VMiranda Lambert
p746
sg16
I45
sg17
VBaggage Claim
p747
sg19
I49
sg20
I16
sg21
S'-4'
p748
sba(i__main__
EntrySentiment
p749
(dp750
g12
I01
sg13
I43
sg14
VChristina Perri
p751
sg16
I43
sg17
VA Thousand Years
p752
sg19
I50
sg20
I6
sg21
S'-7'
p753
sba(i__main__
EntrySentiment
p754
(dp755
g12
I01
sg13
I37
sg14
VThe Band Perry
p756
sg16
I47
sg17
VAll Your Life
p757
sg19
I51
sg20
I12
sg21
S'-4'
p758
sba(i__main__
EntrySentiment
p759
(dp760
g12
I01
sg13
I52
sg14
VBeyonce Featuring Andre 3000
p761
sg16
I52
sg17
VParty
p762
sg19
I52
sg20
I8
sg21
g22
sba(i__main__
EntrySentiment
p763
(dp764
g12
I01
sg13
I40
sg14
VEric Church
p765
sg16
I51
sg17
VDrink In My Hand
p766
sg19
I53
sg20
I10
sg21
S'-2'
p767
sba(i__main__
EntrySentiment
p768
(dp769
g12
I01
sg13
I54
sg14
VJessie J
p770
sg16
I55
sg17
VDomino
p771
sg19
I54
sg20
I7
sg21
S'+1'
p772
sba(i__main__
EntrySentiment
p773
(dp774
g12
I01
sg13
I17
sg14
VTaylor Swift
p775
sg16
I54
sg17
VSparks Fly
p776
sg19
I55
sg20
I18
sg21
S'-1'
p777
sba(i__main__
EntrySentiment
p778
(dp779
g12
I01
sg13
I56
sg14
VAdele
p780
sg16
I74
sg17
VSet Fire To The Rain
p781
sg19
I56
sg20
I13
sg21
S'+18'
p782
sba(i__main__
EntrySentiment
p783
(dp784
g12
I01
sg13
I57
sg14
VWale Featuring Miguel
p785
sg16
I59
sg17
VLotus Flower Bomb
p786
sg19
I57
sg20
I5
sg21
S'+2'
p787
sba(i__main__
EntrySentiment
p788
(dp789
g12
I01
sg13
I51
sg14
VHot Chelle Rae Featuring New Boyz
p790
sg16
I70
sg17
VI Like It Like That
p791
sg19
I58
sg20
I8
sg21
S'+12'
p792
sba(i__main__
EntrySentiment
p793
(dp794
g12
I01
sg13
I59
sg14
VLady Gaga
p795
sg16
I97
sg17
VMarry The Night
p796
sg19
I59
sg20
I3
sg21
S'+38'
p797
sba(i__main__
EntrySentiment
p798
(dp799
g12
I01
sg13
I11
sg14
VJustin Bieber
p800
sg16
I96
sg17
VMistletoe
p801
sg19
I60
sg20
I5
sg21
S'+36'
p802
sba(i__main__
EntrySentiment
p803
(dp804
g12
I01
sg13
I58
sg14
VDavid Nail
p805
sg16
I58
sg17
VLet It Rain
p806
sg19
I61
sg20
I11
sg21
S'-3'
p807
sba(i__main__
EntrySentiment
p808
(dp809
g12
I01
sg13
I11
sg14
VGlee Cast
p810
sg16
I11
sg17
VRumour Has It / Someone Like You
p811
sg19
I62
sg20
I2
sg21
S'-51'
p812
sba(i__main__
EntrySentiment
p813
(dp814
g12
I01
sg13
I62
sg14
VColbie Caillat
p815
sg16
I63
sg17
VBrighter Than The Sun
p816
sg19
I63
sg20
I15
sg21
g22
sba(i__main__
EntrySentiment
p817
(dp818
g12
I01
sg13
I64
sg14
VChris Young
p819
sg16
I64
sg17
VYou
p820
sg19
I64
sg20
I6
sg21
g22
sba(i__main__
EntrySentiment
p821
(dp822
g12
I01
sg13
I65
sg14
VRihanna
p823
sg16
I0
sg17
VWhere Have You Been
p824
sg19
I65
sg20
I1
sg21
g59
sba(i__main__
EntrySentiment
p825
(dp826
g12
I01
sg13
I32
sg14
VThe Script
p827
sg16
I62
sg17
VNothing
p828
sg19
I66
sg20
I16
sg21
S'-4'
p829
sba(i__main__
EntrySentiment
p830
(dp831
g12
I01
sg13
I49
sg14
VWale Featuring Jeremih & Rick Ross
p832
sg16
I61
sg17
VThat Way
p833
sg19
I67
sg20
I13
sg21
S'-6'
p834
sba(i__main__
EntrySentiment
p835
(dp836
g12
I01
sg13
I59
sg14
VPitbull Featuring Chris Brown
p837
sg16
I79
sg17
VInternational Love
p838
sg19
I68
sg20
I4
sg21
S'+11'
p839
sba(i__main__
EntrySentiment
p840
(dp841
g12
I01
sg13
I69
sg14
VBreathe Carolina
p842
sg16
I87
sg17
VBlackout
p843
sg19
I69
sg20
I4
sg21
S'+18'
p844
sba(i__main__
EntrySentiment
p845
(dp846
g12
I01
sg13
I43
sg14
VThe Fray
p847
sg16
I68
sg17
VHeartbeat
p848
sg19
I70
sg20
I6
sg21
S'-2'
p849
sba(i__main__
EntrySentiment
p850
(dp851
g12
I01
sg13
I32
sg14
VBig Sean Featuring Kanye West & Roscoe Dash
p852
sg16
I65
sg17
VMarvin & Chardonnay
p853
sg19
I71
sg20
I19
sg21
S'-6'
p854
sba(i__main__
EntrySentiment
p855
(dp856
g12
I01
sg13
I71
sg14
VThompson Square
p857
sg16
I71
sg17
VI Got You
p858
sg19
I72
sg20
I15
sg21
S'-1'
p859
sba(i__main__
EntrySentiment
p860
(dp861
g12
I01
sg13
I7
sg14
VB.o.B Featuring Lil Wayne
p862
sg16
I82
sg17
VStrange Clouds
p863
sg19
I73
sg20
I9
sg21
S'+9'
p864
sba(i__main__
EntrySentiment
p865
(dp866
g12
I01
sg13
I74
sg14
VEnrique Iglesias Featuring Pitbull & The WAV.s
p867
sg16
I0
sg17
VI Like How It Feels
p868
sg19
I74
sg20
I2
sg21
g311
sba(i__main__
EntrySentiment
p869
(dp870
g12
I01
sg13
I66
sg14
VAvicii
p871
sg16
I66
sg17
VLevels
p872
sg19
I75
sg20
I2
sg21
S'-9'
p873
sba(i__main__
EntrySentiment
p874
(dp875
g12
I01
sg13
I61
sg14
VMartina McBride
p876
sg16
I76
sg17
VI'm Gonna Love You Through It
p877
sg19
I76
sg20
I8
sg21
g22
sba(i__main__
EntrySentiment
p878
(dp879
g12
I01
sg13
I71
sg14
VBeyonce
p880
sg16
I73
sg17
VCountdown
p881
sg19
I77
sg20
I7
sg21
S'-4'
p882
sba(i__main__
EntrySentiment
p883
(dp884
g12
I01
sg13
I41
sg14
VDaughtry
p885
sg16
I0
sg17
VCrawling Back To You
p886
sg19
I78
sg20
I7
sg21
g311
sba(i__main__
EntrySentiment
p887
(dp888
g12
I01
sg13
I79
sg14
VFlorence + The Machine
p889
sg16
I90
sg17
VShake It Out
p890
sg19
I79
sg20
I5
sg21
S'+11'
p891
sba(i__main__
EntrySentiment
p892
(dp893
g12
I01
sg13
I72
sg14
VJerrod Niemann
p894
sg16
I77
sg17
VOne More Drinkin' Song
p895
sg19
I80
sg20
I18
sg21
S'-3'
p896
sba(i__main__
EntrySentiment
p897
(dp898
g12
I01
sg13
I13
sg14
VTaylor Swift
p899
sg16
I56
sg17
VOurs
p900
sg19
I81
sg20
I3
sg21
S'-25'
p901
sba(i__main__
EntrySentiment
p902
(dp903
g12
I01
sg13
I60
sg14
VAdele
p904
sg16
I60
sg17
VRumour Has It
p905
sg19
I82
sg20
I5
sg21
S'-22'
p906
sba(i__main__
EntrySentiment
p907
(dp908
g12
I01
sg13
I65
sg14
VAce Hood Featuring Chris Brown
p909
sg16
I75
sg17
VBody 2 Body
p910
sg19
I83
sg20
I11
sg21
S'-8'
p911
sba(i__main__
EntrySentiment
p912
(dp913
g12
I01
sg13
I83
sg14
VRick Ross Featuring Nicki Minaj
p914
sg16
I83
sg17
VYou The Boss
p915
sg19
I84
sg20
I6
sg21
S'-1'
p916
sba(i__main__
EntrySentiment
p917
(dp918
g12
I01
sg13
I85
sg14
VChris Brown Featuring Kevin McCall
p919
sg16
I0
sg17
VStrip
p920
sg19
I85
sg20
I1
sg21
g59
sba(i__main__
EntrySentiment
p921
(dp922
g12
I01
sg13
I7
sg14
VRihanna
p923
sg16
I78
sg17
VCheers (Drink To That)
p924
sg19
I86
sg20
I18
sg21
S'-8'
p925
sba(i__main__
EntrySentiment
p926
(dp927
g12
I01
sg13
I87
sg14
VKenny Chesney
p928
sg16
I93
sg17
VReality
p929
sg19
I87
sg20
I4
sg21
S'+6'
p930
sba(i__main__
EntrySentiment
p931
(dp932
g12
I01
sg13
I82
sg14
VAWOLNATION
p933
sg16
I84
sg17
VSail
p934
sg19
I88
sg20
I15
sg21
S'-4'
p935
sba(i__main__
EntrySentiment
p936
(dp937
g12
I01
sg13
I89
sg14
VNickelback
p938
sg16
I0
sg17
VLullaby
p939
sg19
I89
sg20
I1
sg21
g59
sba(i__main__
EntrySentiment
p940
(dp941
g12
I01
sg13
I30
sg14
VPitbull Featuring Marc Anthony
p942
sg16
I0
sg17
VRain Over Me
p943
sg19
I90
sg20
I19
sg21
g311
sba(i__main__
EntrySentiment
p944
(dp945
g12
I01
sg13
I70
sg14
VDierks Bentley
p946
sg16
I85
sg17
VHome
p947
sg19
I91
sg20
I3
sg21
S'-6'
p948
sba(i__main__
EntrySentiment
p949
(dp950
g12
I01
sg13
I91
sg14
VThe Black Keys
p951
sg16
I94
sg17
VLonely Boy
p952
sg19
I92
sg20
I3
sg21
S'+2'
p953
sba(i__main__
EntrySentiment
p954
(dp955
g12
I01
sg13
I84
sg14
VScotty McCreery
p956
sg16
I0
sg17
VThe Trouble With Girls
p957
sg19
I93
sg20
I3
sg21
g311
sba(i__main__
EntrySentiment
p958
(dp959
g12
I01
sg13
I94
sg14
VTyga
p960
sg16
I0
sg17
VRack City
p961
sg19
I94
sg20
I1
sg21
g59
sba(i__main__
EntrySentiment
p962
(dp963
g12
I01
sg13
I84
sg14
VDarius Rucker
p964
sg16
I98
sg17
VI Got Nothin'
p965
sg19
I95
sg20
I10
sg21
S'+3'
p966
sba(i__main__
EntrySentiment
p967
(dp968
g12
I01
sg13
I96
sg14
VOutasight
p969
sg16
I0
sg17
VTonight Is The Night
p970
sg19
I96
sg20
I1
sg21
g59
sba(i__main__
EntrySentiment
p971
(dp972
g12
I01
sg13
I12
sg14
VJay Z  Kanye West Featuring Otis Redding
p973
sg16
I88
sg17
VOtis
p974
sg19
I97
sg20
I19
sg21
S'-9'
p975
sba(i__main__
EntrySentiment
p976
(dp977
g12
I01
sg13
I98
sg14
VHunter Hayes
p978
sg16
I0
sg17
VStorm Warning
p979
sg19
I98
sg20
I2
sg21
g311
sba(i__main__
EntrySentiment
p980
(dp981
g12
I01
sg13
I83
sg14
VRomeo Santos Featuring Usher
p982
sg16
I91
sg17
VPromise
p983
sg19
I99
sg20
I6
sg21
S'-8'
p984
sba(i__main__
EntrySentiment
p985
(dp986
g12
I01
sg13
I100
sg14
VMana Featuring Prince Royce
p987
sg16
I0
sg17
VEl Verdadero Amor Perdona
p988
sg19
I100
sg20
I1
sg21
g59
sbasg500
S'2011-12-10'
p989
sg502
(lp990
(g580
g581
g504
tp991
asg506
I00
sba(i__main__
ChartSentiment
p992
(dp993
g3
I01
sg4
F-0.005972591836734679
sg5
g6
sg7
I1000
sg8
(lp994
(i__main__
EntrySentiment
p995
(dp996
g12
I01
sg13
I1
sg14
VRihanna Featuring Calvin Harris
p997
sg16
I1
sg17
VWe Found Love
p998
sg19
I1
sg20
I11
sg21
g22
sba(i__main__
EntrySentiment
p999
(dp1000
g12
I01
sg13
I2
sg14
VLMFAO
p1001
sg16
I2
sg17
VSexy And I Know It
p1002
sg19
I2
sg20
I14
sg21
g22
sba(i__main__
EntrySentiment
p1003
(dp1004
g12
I01
sg13
I3
sg14
VBruno Mars
p1005
sg16
I3
sg17
VIt Will Rain
p1006
sg19
I3
sg20
I10
sg21
g22
sba(i__main__
EntrySentiment
p1007
(dp1008
g12
I01
sg13
I1
sg14
VMaroon 5 Featuring Christina Aguilera
p1009
sg16
I4
sg17
VMoves Like Jagger
p1010
sg19
I4
sg20
I24
sg21
g22
sba(i__main__
EntrySentiment
p1011
(dp1012
g12
I01
sg13
I5
sg14
VFlo Rida
p1013
sg16
I8
sg17
VGood Feeling
p1014
sg19
I5
sg20
I10
sg21
S'+3'
p1015
sba(i__main__
EntrySentiment
p1016
(dp1017
g12
I01
sg13
I1
sg14
VAdele
p1018
sg16
I5
sg17
VSomeone Like You
p1019
sg19
I6
sg20
I22
sg21
S'-1'
p1020
sba(i__main__
EntrySentiment
p1021
(dp1022
g12
I01
sg13
I4
sg14
VDavid Guetta Featuring Usher
p1023
sg16
I6
sg17
VWithout You
p1024
sg19
I7
sg20
I14
sg21
S'-1'
p1025
sba(i__main__
EntrySentiment
p1026
(dp1027
g12
I00
sg13
I8
sg14
VJay Z  Kanye West
p1028
sg16
I15
sg17
VNi**as in Paris
p1029
sg19
I8
sg20
I17
sg21
S'+7'
p1030
sba(i__main__
EntrySentiment
p1031
(dp1032
g12
I01
sg13
I9
sg14
VKaty Perry
p1033
sg16
I9
sg17
VThe One That Got Away
p1034
sg19
I9
sg20
I8
sg21
g22
sba(i__main__
EntrySentiment
p1035
(dp1036
g12
I01
sg13
I4
sg14
VGym Class Heroes Featuring Adam Levine
p1037
sg16
I7
sg17
VStereo Hearts
p1038
sg19
I10
sg20
I25
sg21
S'-3'
p1039
sba(i__main__
EntrySentiment
p1040
(dp1041
g12
I01
sg13
I11
sg14
VT-Pain Featuring Wiz Khalifa & Lily Allen
p1042
sg16
I11
sg17
V5 O'Clock
p1043
sg19
I11
sg20
I10
sg21
g22
sba(i__main__
EntrySentiment
p1044
(dp1045
g12
I01
sg13
I1
sg14
VLMFAO Featuring Lauren Bennett & GoonRock
p1046
sg16
I10
sg17
VParty Rock Anthem
p1047
sg19
I12
sg20
I37
sg21
S'-2'
p1048
sba(i__main__
EntrySentiment
p1049
(dp1050
g12
I01
sg13
I13
sg14
VDrake
p1051
sg16
I14
sg17
VHeadlines
p1052
sg19
I13
sg20
I17
sg21
S'+1'
p1053
sba(i__main__
EntrySentiment
p1054
(dp1055
g12
I01
sg13
I14
sg14
VJ. Cole
p1056
sg16
I17
sg17
VWork Out
p1057
sg19
I14
sg20
I14
sg21
S'+3'
p1058
sba(i__main__
EntrySentiment
p1059
(dp1060
g12
I01
sg13
I7
sg14
VCobra Starship Featuring Sabi
p1061
sg16
I12
sg17
VYou Make Me Feel...
p1062
sg19
I15
sg20
I21
sg21
S'-3'
p1063
sba(i__main__
EntrySentiment
p1064
(dp1065
g12
I01
sg13
I16
sg14
VBig Sean Featuring Nicki Minaj
p1066
sg16
I18
sg17
VDance (A$$)
p1067
sg19
I16
sg20
I9
sg21
S'+2'
p1068
sba(i__main__
EntrySentiment
p1069
(dp1070
g12
I01
sg13
I3
sg14
VFoster The People
p1071
sg16
I13
sg17
VPumped Up Kicks
p1072
sg19
I17
sg20
I32
sg21
S'-4'
p1073
sba(i__main__
EntrySentiment
p1074
(dp1075
g12
I01
sg13
I10
sg14
VKelly Clarkson
p1076
sg16
I16
sg17
VMr. Know It All
p1077
sg19
I18
sg20
I13
sg21
S'-2'
p1078
sba(i__main__
EntrySentiment
p1079
(dp1080
g12
I01
sg13
I14
sg14
VRihanna
p1081
sg16
I22
sg17
VYou Da One
p1082
sg19
I19
sg20
I4
sg21
S'+3'
p1083
sba(i__main__
EntrySentiment
p1084
(dp1085
g12
I01
sg13
I1
sg14
VPitbull Featuring Ne-Yo, Afrojack & Nayer
p1086
sg16
I23
sg17
VGive Me Everything
p1087
sg19
I20
sg20
I36
sg21
S'+3'
p1088
sba(i__main__
EntrySentiment
p1089
(dp1090
g12
I01
sg13
I3
sg14
VNicki Minaj
p1091
sg16
I20
sg17
VSuper Bass
p1092
sg19
I21
sg20
I32
sg21
S'-1'
p1093
sba(i__main__
EntrySentiment
p1094
(dp1095
g12
I01
sg13
I22
sg14
VLuke Bryan
p1096
sg16
I28
sg17
VI Don't Want This Night To End
p1097
sg19
I22
sg20
I10
sg21
S'+6'
p1098
sba(i__main__
EntrySentiment
p1099
(dp1100
g12
I01
sg13
I23
sg14
VGavin DeGraw
p1101
sg16
I26
sg17
VNot Over You
p1102
sg19
I23
sg20
I17
sg21
S'+3'
p1103
sba(i__main__
EntrySentiment
p1104
(dp1105
g12
I01
sg13
I11
sg14
VDev
p1106
sg16
I21
sg17
VIn The Dark
p1107
sg19
I24
sg20
I18
sg21
S'-3'
p1108
sba(i__main__
EntrySentiment
p1109
(dp1110
g12
I01
sg13
I19
sg14
VNicki Minaj Featuring Rihanna
p1111
sg16
I19
sg17
VFly
p1112
sg19
I25
sg20
I15
sg21
S'-6'
p1113
sba(i__main__
EntrySentiment
p1114
(dp1115
g12
I01
sg13
I7
sg14
VLady Antebellum
p1116
sg16
I27
sg17
VJust A Kiss
p1117
sg19
I26
sg20
I31
sg21
S'+1'
p1118
sba(i__main__
EntrySentiment
p1119
(dp1120
g12
I01
sg13
I18
sg14
VDrake Featuring Lil Wayne
p1121
sg16
I32
sg17
VThe Motto
p1122
sg19
I27
sg20
I3
sg21
S'+5'
p1123
sba(i__main__
EntrySentiment
p1124
(dp1125
g12
I01
sg13
I9
sg14
VDrake Featuring Nicki Minaj
p1126
sg16
I39
sg17
VMake Me Proud
p1127
sg19
I28
sg20
I8
sg21
S'+11'
p1128
sba(i__main__
EntrySentiment
p1129
(dp1130
g12
I01
sg13
I10
sg14
VSnoop Dogg & Wiz Khalifa Featuring Bruno Mars
p1131
sg16
I47
sg17
VYoung, Wild & Free
p1132
sg19
I29
sg20
I8
sg21
S'+18'
p1133
sba(i__main__
EntrySentiment
p1134
(dp1135
g12
I01
sg13
I3
sg14
VLil Wayne Featuring Drake
p1136
sg16
I33
sg17
VShe Will
p1137
sg19
I30
sg20
I16
sg21
S'+3'
p1138
sba(i__main__
EntrySentiment
p1139
(dp1140
g12
I01
sg13
I31
sg14
VLady Antebellum
p1141
sg16
I34
sg17
VWe Owned The Night
p1142
sg19
I31
sg20
I16
sg21
S'+3'
p1143
sba(i__main__
EntrySentiment
p1144
(dp1145
g12
I01
sg13
I32
sg14
VLady Gaga
p1146
sg16
I59
sg17
VMarry The Night
p1147
sg19
I32
sg20
I4
sg21
S'+27'
p1148
sba(i__main__
EntrySentiment
p1149
(dp1150
g12
I01
sg13
I15
sg14
VColdplay
p1151
sg16
I30
sg17
VParadise
p1152
sg19
I33
sg20
I12
sg21
S'-3'
p1153
sba(i__main__
EntrySentiment
p1154
(dp1155
g12
I01
sg13
I34
sg14
VSelena Gomez & The Scene
p1156
sg16
I40
sg17
VLove You Like A Love Song
p1157
sg19
I34
sg20
I24
sg21
S'+6'
p1158
sba(i__main__
EntrySentiment
p1159
(dp1160
g12
I01
sg13
I35
sg14
VToby Keith
p1161
sg16
I35
sg17
VRed Solo Cup
p1162
sg19
I35
sg20
I6
sg21
g22
sba(i__main__
EntrySentiment
p1163
(dp1164
g12
I01
sg13
I1
sg14
VAdele
p1165
sg16
I38
sg17
VRolling In The Deep
p1166
sg19
I36
sg20
I48
sg21
S'+2'
p1167
sba(i__main__
EntrySentiment
p1168
(dp1169
g12
I01
sg13
I37
sg14
VAdele
p1170
sg16
I56
sg17
VSet Fire To The Rain
p1171
sg19
I37
sg20
I14
sg21
S'+19'
p1172
sba(i__main__
EntrySentiment
p1173
(dp1174
g12
I01
sg13
I38
sg14
VJason Aldean
p1175
sg16
I42
sg17
VTattoos On This Town
p1176
sg19
I38
sg20
I11
sg21
S'+4'
p1177
sba(i__main__
EntrySentiment
p1178
(dp1179
g12
I01
sg13
I6
sg14
VLady Gaga
p1180
sg16
I29
sg17
VYou And I
p1181
sg19
I39
sg20
I18
sg21
S'-10'
p1182
sba(i__main__
EntrySentiment
p1183
(dp1184
g12
I01
sg13
I17
sg14
VJason Derulo
p1185
sg16
I24
sg17
VIt Girl
p1186
sg19
I40
sg20
I17
sg21
S'-16'
p1187
sba(i__main__
EntrySentiment
p1188
(dp1189
g12
I01
sg13
I41
sg14
VZac Brown Band
p1190
sg16
I45
sg17
VKeep Me In Mind
p1191
sg19
I41
sg20
I10
sg21
S'+4'
p1192
sba(i__main__
EntrySentiment
p1193
(dp1194
g12
I01
sg13
I22
sg14
VBlake Shelton
p1195
sg16
I37
sg17
VGod Gave Me You
p1196
sg19
I42
sg20
I21
sg21
S'-5'
p1197
sba(i__main__
EntrySentiment
p1198
(dp1199
g12
I01
sg13
I43
sg14
VHot Chelle Rae Featuring New Boyz
p1200
sg16
I58
sg17
VI Like It Like That
p1201
sg19
I43
sg20
I9
sg21
S'+15'
p1202
sba(i__main__
EntrySentiment
p1203
(dp1204
g12
I01
sg13
I11
sg14
VJustin Bieber
p1205
sg16
I60
sg17
VMistletoe
p1206
sg19
I44
sg20
I6
sg21
S'+16'
p1207
sba(i__main__
EntrySentiment
p1208
(dp1209
g12
I01
sg13
I43
sg14
VRascal Flatts Featuring Natasha Bedingfield
p1210
sg16
I46
sg17
VEasy
p1211
sg19
I45
sg20
I19
sg21
S'+1'
p1212
sba(i__main__
EntrySentiment
p1213
(dp1214
g12
I01
sg13
I46
sg14
VWale Featuring Miguel
p1215
sg16
I57
sg17
VLotus Flower Bomb
p1216
sg19
I46
sg20
I6
sg21
S'+11'
p1217
sba(i__main__
EntrySentiment
p1218
(dp1219
g12
I01
sg13
I40
sg14
VEric Church
p1220
sg16
I53
sg17
VDrink In My Hand
p1221
sg19
I47
sg20
I11
sg21
S'+6'
p1222
sba(i__main__
EntrySentiment
p1223
(dp1224
g12
I01
sg13
I48
sg14
VJessie J
p1225
sg16
I54
sg17
VDomino
p1226
sg19
I48
sg20
I8
sg21
S'+6'
p1227
sba(i__main__
EntrySentiment
p1228
(dp1229
g12
I01
sg13
I9
sg14
VDrake Featuring Rihanna
p1230
sg16
I25
sg17
VTake Care
p1231
sg19
I49
sg20
I3
sg21
S'-24'
p1232
sba(i__main__
EntrySentiment
p1233
(dp1234
g12
I01
sg13
I50
sg14
VBeyonce Featuring Andre 3000
p1235
sg16
I52
sg17
VParty
p1236
sg19
I50
sg20
I9
sg21
S'+2'
p1237
sba(i__main__
EntrySentiment
p1238
(dp1239
g12
I01
sg13
I37
sg14
VThe Band Perry
p1240
sg16
I51
sg17
VAll Your Life
p1241
sg19
I51
sg20
I13
sg21
g22
sba(i__main__
EntrySentiment
p1242
(dp1243
g12
I01
sg13
I44
sg14
VNickelback
p1244
sg16
I48
sg17
VWhen We Stand Together
p1245
sg19
I52
sg20
I10
sg21
S'-4'
p1246
sba(i__main__
EntrySentiment
p1247
(dp1248
g12
I01
sg13
I44
sg14
VMiranda Lambert
p1249
sg16
I49
sg17
VBaggage Claim
p1250
sg19
I53
sg20
I17
sg21
S'-4'
p1251
sba(i__main__
EntrySentiment
p1252
(dp1253
g12
I01
sg13
I54
sg14
VDavid Nail
p1254
sg16
I61
sg17
VLet It Rain
p1255
sg19
I54
sg20
I12
sg21
S'+7'
p1256
sba(i__main__
EntrySentiment
p1257
(dp1258
g12
I01
sg13
I43
sg14
VChristina Perri
p1259
sg16
I50
sg17
VA Thousand Years
p1260
sg19
I55
sg20
I7
sg21
S'-5'
p1261
sba(i__main__
EntrySentiment
p1262
(dp1263
g12
I01
sg13
I56
sg14
VPitbull Featuring Chris Brown
p1264
sg16
I68
sg17
VInternational Love
p1265
sg19
I56
sg20
I5
sg21
S'+12'
p1266
sba(i__main__
EntrySentiment
p1267
(dp1268
g12
I01
sg13
I57
sg14
VGlee Cast
p1269
sg16
I0
sg17
VPerfect
p1270
sg19
I57
sg20
I1
sg21
g59
sba(i__main__
EntrySentiment
p1271
(dp1272
g12
I01
sg13
I58
sg14
VChris Young
p1273
sg16
I64
sg17
VYou
p1274
sg19
I58
sg20
I7
sg21
S'+6'
p1275
sba(i__main__
EntrySentiment
p1276
(dp1277
g12
I01
sg13
I59
sg14
VGlee Cast
p1278
sg16
I0
sg17
VGirls Just Want To Have Fun
p1279
sg19
I59
sg20
I1
sg21
g59
sba(i__main__
EntrySentiment
p1280
(dp1281
g12
I01
sg13
I60
sg14
VColbie Caillat
p1282
sg16
I63
sg17
VBrighter Than The Sun
p1283
sg19
I60
sg20
I16
sg21
S'+3'
p1284
sba(i__main__
EntrySentiment
p1285
(dp1286
g12
I01
sg13
I61
sg14
VBreathe Carolina
p1287
sg16
I69
sg17
VBlackout
p1288
sg19
I61
sg20
I5
sg21
S'+8'
p1289
sba(i__main__
EntrySentiment
p1290
(dp1291
g12
I01
sg13
I7
sg14
VB.o.B Featuring Lil Wayne
p1292
sg16
I73
sg17
VStrange Clouds
p1293
sg19
I62
sg20
I10
sg21
S'+11'
p1294
sba(i__main__
EntrySentiment
p1295
(dp1296
g12
I01
sg13
I43
sg14
VThe Fray
p1297
sg16
I70
sg17
VHeartbeat
p1298
sg19
I63
sg20
I7
sg21
S'+7'
p1299
sba(i__main__
EntrySentiment
p1300
(dp1301
g12
I01
sg13
I64
sg14
VNicki Minaj
p1302
sg16
I0
sg17
VRoman In Moscow
p1303
sg19
I64
sg20
I1
sg21
g59
sba(i__main__
EntrySentiment
p1304
(dp1305
g12
I01
sg13
I17
sg14
VTaylor Swift
p1306
sg16
I55
sg17
VSparks Fly
p1307
sg19
I65
sg20
I19
sg21
S'-10'
p1308
sba(i__main__
EntrySentiment
p1309
(dp1310
g12
I01
sg13
I66
sg14
VGlee Cast
p1311
sg16
I0
sg17
VI Kissed A Girl
p1312
sg19
I66
sg20
I1
sg21
g59
sba(i__main__
EntrySentiment
p1313
(dp1314
g12
I01
sg13
I49
sg14
VWale Featuring Jeremih & Rick Ross
p1315
sg16
I67
sg17
VThat Way
p1316
sg19
I67
sg20
I14
sg21
g22
sba(i__main__
EntrySentiment
p1317
(dp1318
g12
I01
sg13
I68
sg14
VThompson Square
p1319
sg16
I72
sg17
VI Got You
p1320
sg19
I68
sg20
I16
sg21
S'+4'
p1321
sba(i__main__
EntrySentiment
p1322
(dp1323
g12
I01
sg13
I69
sg14
VThe Black Keys
p1324
sg16
I92
sg17
VLonely Boy
p1325
sg19
I69
sg20
I4
sg21
S'+23'
p1326
sba(i__main__
EntrySentiment
p1327
(dp1328
g12
I01
sg13
I70
sg14
VOutasight
p1329
sg16
I96
sg17
VTonight Is The Night
p1330
sg19
I70
sg20
I2
sg21
S'+26'
p1331
sba(i__main__
EntrySentiment
p1332
(dp1333
g12
I01
sg13
I66
sg14
VAvicii
p1334
sg16
I75
sg17
VLevels
p1335
sg19
I71
sg20
I3
sg21
S'+4'
p1336
sba(i__main__
EntrySentiment
p1337
(dp1338
g12
I01
sg13
I72
sg14
VRick Ross Featuring Nicki Minaj
p1339
sg16
I84
sg17
VYou The Boss
p1340
sg19
I72
sg20
I7
sg21
S'+12'
p1341
sba(i__main__
EntrySentiment
p1342
(dp1343
g12
I01
sg13
I73
sg14
VTyga
p1344
sg16
I94
sg17
VRack City
p1345
sg19
I73
sg20
I2
sg21
S'+21'
p1346
sba(i__main__
EntrySentiment
p1347
(dp1348
g12
I01
sg13
I32
sg14
VThe Script
p1349
sg16
I66
sg17
VNothing
p1350
sg19
I74
sg20
I17
sg21
S'-8'
p1351
sba(i__main__
EntrySentiment
p1352
(dp1353
g12
I01
sg13
I61
sg14
VMartina McBride
p1354
sg16
I76
sg17
VI'm Gonna Love You Through It
p1355
sg19
I75
sg20
I9
sg21
S'+1'
p1356
sba(i__main__
EntrySentiment
p1357
(dp1358
g12
I01
sg13
I32
sg14
VBig Sean Featuring Kanye West & Roscoe Dash
p1359
sg16
I71
sg17
VMarvin & Chardonnay
p1360
sg19
I76
sg20
I20
sg21
S'-5'
p1361
sba(i__main__
EntrySentiment
p1362
(dp1363
g12
I01
sg13
I31
sg14
VRihanna Featuring Jay-Z
p1364
sg16
I31
sg17
VTalk That Talk
p1365
sg19
I77
sg20
I2
sg21
S'-46'
p1366
sba(i__main__
EntrySentiment
p1367
(dp1368
g12
I01
sg13
I78
sg14
VGrouplove
p1369
sg16
I0
sg17
VTongue Tied
p1370
sg19
I78
sg20
I1
sg21
g59
sba(i__main__
EntrySentiment
p1371
(dp1372
g12
I01
sg13
I70
sg14
VDierks Bentley
p1373
sg16
I91
sg17
VHome
p1374
sg19
I79
sg20
I4
sg21
S'+12'
p1375
sba(i__main__
EntrySentiment
p1376
(dp1377
g12
I01
sg13
I80
sg14
VKenny Chesney
p1378
sg16
I87
sg17
VReality
p1379
sg19
I80
sg20
I5
sg21
S'+7'
p1380
sba(i__main__
EntrySentiment
p1381
(dp1382
g12
I01
sg13
I41
sg14
VDaughtry
p1383
sg16
I78
sg17
VCrawling Back To You
p1384
sg19
I81
sg20
I8
sg21
S'-3'
p1385
sba(i__main__
EntrySentiment
p1386
(dp1387
g12
I01
sg13
I82
sg14
VJ. Cole Featuring Trey Songz
p1388
sg16
I0
sg17
VCan't Get Enough
p1389
sg19
I82
sg20
I1
sg21
g59
sba(i__main__
EntrySentiment
p1390
(dp1391
g12
I01
sg13
I13
sg14
VTaylor Swift
p1392
sg16
I81
sg17
VOurs
p1393
sg19
I83
sg20
I4
sg21
S'-2'
p1394
sba(i__main__
EntrySentiment
p1395
(dp1396
g12
I01
sg13
I65
sg14
VAce Hood Featuring Chris Brown
p1397
sg16
I83
sg17
VBody 2 Body
p1398
sg19
I84
sg20
I12
sg21
S'-1'
p1399
sba(i__main__
EntrySentiment
p1400
(dp1401
g12
I01
sg13
I11
sg14
VGlee Cast
p1402
sg16
I62
sg17
VRumour Has It / Someone Like You
p1403
sg19
I85
sg20
I3
sg21
S'-23'
p1404
sba(i__main__
EntrySentiment
p1405
(dp1406
g12
I01
sg13
I86
sg14
VGlee Cast
p1407
sg16
I0
sg17
VI'm The Only One
p1408
sg19
I86
sg20
I1
sg21
g59
sba(i__main__
EntrySentiment
p1409
(dp1410
g12
I01
sg13
I60
sg14
VAdele
p1411
sg16
I82
sg17
VRumour Has It
p1412
sg19
I87
sg20
I6
sg21
S'-5'
p1413
sba(i__main__
EntrySentiment
p1414
(dp1415
g12
I01
sg13
I79
sg14
VFlorence + The Machine
p1416
sg16
I79
sg17
VShake It Out
p1417
sg19
I88
sg20
I6
sg21
S'-9'
p1418
sba(i__main__
EntrySentiment
p1419
(dp1420
g12
I01
sg13
I89
sg14
VGlee Cast
p1421
sg16
I0
sg17
VConstant Craving
p1422
sg19
I89
sg20
I1
sg21
g59
sba(i__main__
EntrySentiment
p1423
(dp1424
g12
I01
sg13
I36
sg14
Vwill.i.am Featuring Mick Jagger & Jennifer Lopez
p1425
sg16
I36
sg17
VT.H.E. (The Hardest Ever)
p1426
sg19
I90
sg20
I2
sg21
S'-54'
p1427
sba(i__main__
EntrySentiment
p1428
(dp1429
g12
I01
sg13
I71
sg14
VBeyonce
p1430
sg16
I77
sg17
VCountdown
p1431
sg19
I91
sg20
I8
sg21
S'-14'
p1432
sba(i__main__
EntrySentiment
p1433
(dp1434
g12
I01
sg13
I92
sg14
VHunter Hayes
p1435
sg16
I98
sg17
VStorm Warning
p1436
sg19
I92
sg20
I3
sg21
S'+6'
p1437
sba(i__main__
EntrySentiment
p1438
(dp1439
g12
I01
sg13
I74
sg14
VEnrique Iglesias Featuring Pitbull & The WAV.s
p1440
sg16
I74
sg17
VI Like How It Feels
p1441
sg19
I93
sg20
I3
sg21
S'-19'
p1442
sba(i__main__
EntrySentiment
p1443
(dp1444
g12
I01
sg13
I82
sg14
VAWOLNATION
p1445
sg16
I88
sg17
VSail
p1446
sg19
I94
sg20
I16
sg21
S'-6'
p1447
sba(i__main__
EntrySentiment
p1448
(dp1449
g12
I01
sg13
I84
sg14
VScotty McCreery
p1450
sg16
I93
sg17
VThe Trouble With Girls
p1451
sg19
I95
sg20
I4
sg21
S'-2'
p1452
sba(i__main__
EntrySentiment
p1453
(dp1454
g12
I01
sg13
I96
sg14
VMichael Buble
p1455
sg16
I0
sg17
VIt's Beginning To Look A Lot Like Christmas
p1456
sg19
I96
sg20
I1
sg21
g59
sba(i__main__
EntrySentiment
p1457
(dp1458
g12
I01
sg13
I83
sg14
VRomeo Santos Featuring Usher
p1459
sg16
I99
sg17
VPromise
p1460
sg19
I97
sg20
I7
sg21
S'+2'
p1461
sba(i__main__
EntrySentiment
p1462
(dp1463
g12
I01
sg13
I12
sg14
VJay Z  Kanye West Featuring Otis Redding
p1464
sg16
I97
sg17
VOtis
p1465
sg19
I98
sg20
I20
sg21
S'-1'
p1466
sba(i__main__
EntrySentiment
p1467
(dp1468
g12
I00
sg13
I21
sg14
VDrake
p1469
sg16
I0
sg17
VMarvins Room
p1470
sg19
I99
sg20
I18
sg21
g311
sba(i__main__
EntrySentiment
p1471
(dp1472
g12
I01
sg13
I100
sg14
VBrad Paisley
p1473
sg16
I0
sg17
VCamouflage
p1474
sg19
I100
sg20
I1
sg21
g59
sbasg500
S'2011-12-17'
p1475
sg502
(lp1476
(g1028
g1029
g504
tp1477
a(g1469
g1470
Vhttp://www.songlyrics.com/drake/marvins-room-lyrics/
p1478
tp1479
asg506
I00
sba(i__main__
ChartSentiment
p1480
(dp1481
g3
I01
sg4
F0.023271525252525252
sg5
g6
sg7
I1000
sg8
(lp1482
(i__main__
EntrySentiment
p1483
(dp1484
g12
I01
sg13
I1
sg14
VRihanna Featuring Calvin Harris
p1485
sg16
I1
sg17
VWe Found Love
p1486
sg19
I1
sg20
I12
sg21
g22
sba(i__main__
EntrySentiment
p1487
(dp1488
g12
I01
sg13
I2
sg14
VLMFAO
p1489
sg16
I2
sg17
VSexy And I Know It
p1490
sg19
I2
sg20
I15
sg21
g22
sba(i__main__
EntrySentiment
p1491
(dp1492
g12
I01
sg13
I3
sg14
VBruno Mars
p1493
sg16
I3
sg17
VIt Will Rain
p1494
sg19
I3
sg20
I11
sg21
g22
sba(i__main__
EntrySentiment
p1495
(dp1496
g12
I01
sg13
I4
sg14
VKaty Perry
p1497
sg16
I9
sg17
VThe One That Got Away
p1498
sg19
I4
sg20
I9
sg21
S'+5'
p1499
sba(i__main__
EntrySentiment
p1500
(dp1501
g12
I01
sg13
I5
sg14
VFlo Rida
p1502
sg16
I5
sg17
VGood Feeling
p1503
sg19
I5
sg20
I11
sg21
g22
sba(i__main__
EntrySentiment
p1504
(dp1505
g12
I00
sg13
I6
sg14
VJay Z  Kanye West
p1506
sg16
I8
sg17
VNi**as in Paris
p1507
sg19
I6
sg20
I18
sg21
S'+2'
p1508
sba(i__main__
EntrySentiment
p1509
(dp1510
g12
I01
sg13
I1
sg14
VAdele
p1511
sg16
I6
sg17
VSomeone Like You
p1512
sg19
I7
sg20
I23
sg21
S'-1'
p1513
sba(i__main__
EntrySentiment
p1514
(dp1515
g12
I01
sg13
I1
sg14
VMaroon 5 Featuring Christina Aguilera
p1516
sg16
I4
sg17
VMoves Like Jagger
p1517
sg19
I8
sg20
I25
sg21
S'-4'
p1518
sba(i__main__
EntrySentiment
p1519
(dp1520
g12
I01
sg13
I4
sg14
VDavid Guetta Featuring Usher
p1521
sg16
I7
sg17
VWithout You
p1522
sg19
I9
sg20
I15
sg21
S'-2'
p1523
sba(i__main__
EntrySentiment
p1524
(dp1525
g12
I01
sg13
I10
sg14
VT-Pain Featuring Wiz Khalifa & Lily Allen
p1526
sg16
I11
sg17
V5 O'Clock
p1527
sg19
I10
sg20
I11
sg21
S'+1'
p1528
sba(i__main__
EntrySentiment
p1529
(dp1530
g12
I01
sg13
I4
sg14
VGym Class Heroes Featuring Adam Levine
p1531
sg16
I10
sg17
VStereo Hearts
p1532
sg19
I11
sg20
I26
sg21
S'-1'
p1533
sba(i__main__
EntrySentiment
p1534
(dp1535
g12
I01
sg13
I12
sg14
VGlee Cast
p1536
sg16
I0
sg17
VWe Are Young
p1537
sg19
I12
sg20
I1
sg21
g59
sba(i__main__
EntrySentiment
p1538
(dp1539
g12
I01
sg13
I1
sg14
VLMFAO Featuring Lauren Bennett & GoonRock
p1540
sg16
I12
sg17
VParty Rock Anthem
p1541
sg19
I13
sg20
I38
sg21
S'-1'
p1542
sba(i__main__
EntrySentiment
p1543
(dp1544
g12
I01
sg13
I14
sg14
VBig Sean Featuring Nicki Minaj
p1545
sg16
I16
sg17
VDance (A$$)
p1546
sg19
I14
sg20
I10
sg21
S'+2'
p1547
sba(i__main__
EntrySentiment
p1548
(dp1549
g12
I01
sg13
I14
sg14
VJ. Cole
p1550
sg16
I14
sg17
VWork Out
p1551
sg19
I15
sg20
I15
sg21
S'-1'
p1552
sba(i__main__
EntrySentiment
p1553
(dp1554
g12
I01
sg13
I13
sg14
VDrake
p1555
sg16
I13
sg17
VHeadlines
p1556
sg19
I16
sg20
I18
sg21
S'-3'
p1557
sba(i__main__
EntrySentiment
p1558
(dp1559
g12
I01
sg13
I17
sg14
VToby Keith
p1560
sg16
I35
sg17
VRed Solo Cup
p1561
sg19
I17
sg20
I7
sg21
S'+18'
p1562
sba(i__main__
EntrySentiment
p1563
(dp1564
g12
I01
sg13
I3
sg14
VFoster The People
p1565
sg16
I17
sg17
VPumped Up Kicks
p1566
sg19
I18
sg20
I33
sg21
S'-1'
p1567
sba(i__main__
EntrySentiment
p1568
(dp1569
g12
I01
sg13
I7
sg14
VCobra Starship Featuring Sabi
p1570
sg16
I15
sg17
VYou Make Me Feel...
p1571
sg19
I19
sg20
I22
sg21
S'-4'
p1572
sba(i__main__
EntrySentiment
p1573
(dp1574
g12
I01
sg13
I10
sg14
VKelly Clarkson
p1575
sg16
I18
sg17
VMr. Know It All
p1576
sg19
I20
sg20
I14
sg21
S'-2'
p1577
sba(i__main__
EntrySentiment
p1578
(dp1579
g12
I01
sg13
I21
sg14
VAdele
p1580
sg16
I37
sg17
VSet Fire To The Rain
p1581
sg19
I21
sg20
I15
sg21
S'+16'
p1582
sba(i__main__
EntrySentiment
p1583
(dp1584
g12
I01
sg13
I10
sg14
VSnoop Dogg & Wiz Khalifa Featuring Bruno Mars
p1585
sg16
I29
sg17
VYoung, Wild & Free
p1586
sg19
I22
sg20
I9
sg21
S'+7'
p1587
sba(i__main__
EntrySentiment
p1588
(dp1589
g12
I01
sg13
I14
sg14
VRihanna
p1590
sg16
I19
sg17
VYou Da One
p1591
sg19
I23
sg20
I5
sg21
S'-4'
p1592
sba(i__main__
EntrySentiment
p1593
(dp1594
g12
I01
sg13
I23
sg14
VGavin DeGraw
p1595
sg16
I23
sg17
VNot Over You
p1596
sg19
I24
sg20
I18
sg21
S'-1'
p1597
sba(i__main__
EntrySentiment
p1598
(dp1599
g12
I01
sg13
I22
sg14
VLuke Bryan
p1600
sg16
I22
sg17
VI Don't Want This Night To End
p1601
sg19
I25
sg20
I11
sg21
S'-3'
p1602
sba(i__main__
EntrySentiment
p1603
(dp1604
g12
I01
sg13
I1
sg14
VPitbull Featuring Ne-Yo, Afrojack & Nayer
p1605
sg16
I20
sg17
VGive Me Everything
p1606
sg19
I26
sg20
I37
sg21
S'-6'
p1607
sba(i__main__
EntrySentiment
p1608
(dp1609
g12
I01
sg13
I9
sg14
VDrake Featuring Nicki Minaj
p1610
sg16
I28
sg17
VMake Me Proud
p1611
sg19
I27
sg20
I9
sg21
S'+1'
p1612
sba(i__main__
EntrySentiment
p1613
(dp1614
g12
I01
sg13
I7
sg14
VLady Antebellum
p1615
sg16
I26
sg17
VJust A Kiss
p1616
sg19
I28
sg20
I32
sg21
S'-2'
p1617
sba(i__main__
EntrySentiment
p1618
(dp1619
g12
I01
sg13
I29
sg14
VLady Gaga
p1620
sg16
I32
sg17
VMarry The Night
p1621
sg19
I29
sg20
I5
sg21
S'+3'
p1622
sba(i__main__
EntrySentiment
p1623
(dp1624
g12
I01
sg13
I18
sg14
VDrake Featuring Lil Wayne
p1625
sg16
I27
sg17
VThe Motto
p1626
sg19
I30
sg20
I4
sg21
S'-3'
p1627
sba(i__main__
EntrySentiment
p1628
(dp1629
g12
I01
sg13
I31
sg14
VSelena Gomez & The Scene
p1630
sg16
I34
sg17
VLove You Like A Love Song
p1631
sg19
I31
sg20
I25
sg21
S'+3'
p1632
sba(i__main__
EntrySentiment
p1633
(dp1634
g12
I01
sg13
I11
sg14
VDev
p1635
sg16
I24
sg17
VIn The Dark
p1636
sg19
I32
sg20
I19
sg21
S'-8'
p1637
sba(i__main__
EntrySentiment
p1638
(dp1639
g12
I01
sg13
I3
sg14
VNicki Minaj
p1640
sg16
I21
sg17
VSuper Bass
p1641
sg19
I33
sg20
I33
sg21
S'-12'
p1642
sba(i__main__
EntrySentiment
p1643
(dp1644
g12
I01
sg13
I11
sg14
VJustin Bieber
p1645
sg16
I44
sg17
VMistletoe
p1646
sg19
I34
sg20
I7
sg21
S'+10'
p1647
sba(i__main__
EntrySentiment
p1648
(dp1649
g12
I01
sg13
I35
sg14
VZac Brown Band
p1650
sg16
I41
sg17
VKeep Me In Mind
p1651
sg19
I35
sg20
I11
sg21
S'+6'
p1652
sba(i__main__
EntrySentiment
p1653
(dp1654
g12
I01
sg13
I3
sg14
VLil Wayne Featuring Drake
p1655
sg16
I30
sg17
VShe Will
p1656
sg19
I36
sg20
I17
sg21
S'-6'
p1657
sba(i__main__
EntrySentiment
p1658
(dp1659
g12
I01
sg13
I19
sg14
VNicki Minaj Featuring Rihanna
p1660
sg16
I25
sg17
VFly
p1661
sg19
I37
sg20
I16
sg21
S'-12'
p1662
sba(i__main__
EntrySentiment
p1663
(dp1664
g12
I01
sg13
I38
sg14
VJessie J
p1665
sg16
I48
sg17
VDomino
p1666
sg19
I38
sg20
I9
sg21
S'+10'
p1667
sba(i__main__
EntrySentiment
p1668
(dp1669
g12
I01
sg13
I38
sg14
VJason Aldean
p1670
sg16
I38
sg17
VTattoos On This Town
p1671
sg19
I39
sg20
I12
sg21
S'-1'
p1672
sba(i__main__
EntrySentiment
p1673
(dp1674
g12
I01
sg13
I1
sg14
VAdele
p1675
sg16
I36
sg17
VRolling In The Deep
p1676
sg19
I40
sg20
I49
sg21
S'-4'
p1677
sba(i__main__
EntrySentiment
p1678
(dp1679
g12
I01
sg13
I22
sg14
VBlake Shelton
p1680
sg16
I42
sg17
VGod Gave Me You
p1681
sg19
I41
sg20
I22
sg21
S'+1'
p1682
sba(i__main__
EntrySentiment
p1683
(dp1684
g12
I01
sg13
I15
sg14
VColdplay
p1685
sg16
I33
sg17
VParadise
p1686
sg19
I42
sg20
I13
sg21
S'-9'
p1687
sba(i__main__
EntrySentiment
p1688
(dp1689
g12
I01
sg13
I43
sg14
VRascal Flatts Featuring Natasha Bedingfield
p1690
sg16
I45
sg17
VEasy
p1691
sg19
I43
sg20
I20
sg21
S'+2'
p1692
sba(i__main__
EntrySentiment
p1693
(dp1694
g12
I01
sg13
I44
sg14
VWale Featuring Miguel
p1695
sg16
I46
sg17
VLotus Flower Bomb
p1696
sg19
I44
sg20
I7
sg21
S'+2'
p1697
sba(i__main__
EntrySentiment
p1698
(dp1699
g12
I01
sg13
I31
sg14
VLady Antebellum
p1700
sg16
I31
sg17
VWe Owned The Night
p1701
sg19
I45
sg20
I17
sg21
S'-14'
p1702
sba(i__main__
EntrySentiment
p1703
(dp1704
g12
I01
sg13
I46
sg14
VPitbull Featuring Chris Brown
p1705
sg16
I56
sg17
VInternational Love
p1706
sg19
I46
sg20
I6
sg21
S'+10'
p1707
sba(i__main__
EntrySentiment
p1708
(dp1709
g12
I01
sg13
I37
sg14
VThe Band Perry
p1710
sg16
I51
sg17
VAll Your Life
p1711
sg19
I47
sg20
I14
sg21
S'+4'
p1712
sba(i__main__
EntrySentiment
p1713
(dp1714
g12
I01
sg13
I48
sg14
VT-Pain Featuring Lil Wayne
p1715
sg16
I0
sg17
VBang Bang Pow Pow
p1716
sg19
I48
sg20
I1
sg21
g59
sba(i__main__
EntrySentiment
p1717
(dp1718
g12
I01
sg13
I43
sg14
VHot Chelle Rae Featuring New Boyz
p1719
sg16
I43
sg17
VI Like It Like That
p1720
sg19
I49
sg20
I10
sg21
S'-6'
p1721
sba(i__main__
EntrySentiment
p1722
(dp1723
g12
I01
sg13
I40
sg14
VEric Church
p1724
sg16
I47
sg17
VDrink In My Hand
p1725
sg19
I50
sg20
I12
sg21
S'-3'
p1726
sba(i__main__
EntrySentiment
p1727
(dp1728
g12
I01
sg13
I51
sg14
VGlee Cast
p1729
sg16
I0
sg17
VSurvivor / I Will Survive
p1730
sg19
I51
sg20
I1
sg21
g59
sba(i__main__
EntrySentiment
p1731
(dp1732
g12
I01
sg13
I17
sg14
VJason Derulo
p1733
sg16
I40
sg17
VIt Girl
p1734
sg19
I52
sg20
I18
sg21
S'-12'
p1735
sba(i__main__
EntrySentiment
p1736
(dp1737
g12
I01
sg13
I53
sg14
VFun. Featuring Janelle Monae
p1738
sg16
I0
sg17
VWe Are Young
p1739
sg19
I53
sg20
I1
sg21
g59
sba(i__main__
EntrySentiment
p1740
(dp1741
g12
I01
sg13
I54
sg14
VDavid Nail
p1742
sg16
I54
sg17
VLet It Rain
p1743
sg19
I54
sg20
I13
sg21
g22
sba(i__main__
EntrySentiment
p1744
(dp1745
g12
I01
sg13
I50
sg14
VBeyonce Featuring Andre 3000
p1746
sg16
I50
sg17
VParty
p1747
sg19
I55
sg20
I10
sg21
S'-5'
p1748
sba(i__main__
EntrySentiment
p1749
(dp1750
g12
I01
sg13
I56
sg14
VChris Young
p1751
sg16
I58
sg17
VYou
p1752
sg19
I56
sg20
I8
sg21
S'+2'
p1753
sba(i__main__
EntrySentiment
p1754
(dp1755
g12
I01
sg13
I57
sg14
VTyga
p1756
sg16
I73
sg17
VRack City
p1757
sg19
I57
sg20
I3
sg21
S'+16'
p1758
sba(i__main__
EntrySentiment
p1759
(dp1760
g12
I01
sg13
I58
sg14
VBreathe Carolina
p1761
sg16
I61
sg17
VBlackout
p1762
sg19
I58
sg20
I6
sg21
S'+3'
p1763
sba(i__main__
EntrySentiment
p1764
(dp1765
g12
I01
sg13
I6
sg14
VLady Gaga
p1766
sg16
I39
sg17
VYou And I
p1767
sg19
I59
sg20
I19
sg21
S'-20'
p1768
sba(i__main__
EntrySentiment
p1769
(dp1770
g12
I01
sg13
I7
sg14
VB.o.B Featuring Lil Wayne
p1771
sg16
I62
sg17
VStrange Clouds
p1772
sg19
I60
sg20
I11
sg21
S'+2'
p1773
sba(i__main__
EntrySentiment
p1774
(dp1775
g12
I01
sg13
I9
sg14
VDrake Featuring Rihanna
p1776
sg16
I49
sg17
VTake Care
p1777
sg19
I61
sg20
I4
sg21
S'-12'
p1778
sba(i__main__
EntrySentiment
p1779
(dp1780
g12
I01
sg13
I43
sg14
VChristina Perri
p1781
sg16
I55
sg17
VA Thousand Years
p1782
sg19
I62
sg20
I8
sg21
S'-7'
p1783
sba(i__main__
EntrySentiment
p1784
(dp1785
g12
I01
sg13
I60
sg14
VColbie Caillat
p1786
sg16
I60
sg17
VBrighter Than The Sun
p1787
sg19
I63
sg20
I17
sg21
S'-3'
p1788
sba(i__main__
EntrySentiment
p1789
(dp1790
g12
I01
sg13
I64
sg14
VThe Black Keys
p1791
sg16
I69
sg17
VLonely Boy
p1792
sg19
I64
sg20
I5
sg21
S'+5'
p1793
sba(i__main__
EntrySentiment
p1794
(dp1795
g12
I01
sg13
I13
sg14
VTaylor Swift
p1796
sg16
I83
sg17
VOurs
p1797
sg19
I65
sg20
I5
sg21
S'+18'
p1798
sba(i__main__
EntrySentiment
p1799
(dp1800
g12
I01
sg13
I44
sg14
VMiranda Lambert
p1801
sg16
I53
sg17
VBaggage Claim
p1802
sg19
I66
sg20
I18
sg21
S'-13'
p1803
sba(i__main__
EntrySentiment
p1804
(dp1805
g12
I01
sg13
I43
sg14
VThe Fray
p1806
sg16
I63
sg17
VHeartbeat
p1807
sg19
I67
sg20
I8
sg21
S'-4'
p1808
sba(i__main__
EntrySentiment
p1809
(dp1810
g12
I01
sg13
I68
sg14
VOutasight
p1811
sg16
I70
sg17
VTonight Is The Night
p1812
sg19
I68
sg20
I3
sg21
S'+2'
p1813
sba(i__main__
EntrySentiment
p1814
(dp1815
g12
I01
sg13
I69
sg14
VGrouplove
p1816
sg16
I78
sg17
VTongue Tied
p1817
sg19
I69
sg20
I2
sg21
S'+9'
p1818
sba(i__main__
EntrySentiment
p1819
(dp1820
g12
I01
sg13
I44
sg14
VNickelback
p1821
sg16
I52
sg17
VWhen We Stand Together
p1822
sg19
I70
sg20
I11
sg21
S'-18'
p1823
sba(i__main__
EntrySentiment
p1824
(dp1825
g12
I01
sg13
I71
sg14
VJ. Cole Featuring Trey Songz
p1826
sg16
I82
sg17
VCan't Get Enough
p1827
sg19
I71
sg20
I2
sg21
S'+11'
p1828
sba(i__main__
EntrySentiment
p1829
(dp1830
g12
I01
sg13
I72
sg14
VRick Ross Featuring Nicki Minaj
p1831
sg16
I72
sg17
VYou The Boss
p1832
sg19
I72
sg20
I8
sg21
g22
sba(i__main__
EntrySentiment
p1833
(dp1834
g12
I01
sg13
I49
sg14
VWale Featuring Jeremih & Rick Ross
p1835
sg16
I67
sg17
VThat Way
p1836
sg19
I73
sg20
I15
sg21
S'-6'
p1837
sba(i__main__
EntrySentiment
p1838
(dp1839
g12
I01
sg13
I61
sg14
VMartina McBride
p1840
sg16
I75
sg17
VI'm Gonna Love You Through It
p1841
sg19
I74
sg20
I10
sg21
S'+1'
p1842
sba(i__main__
EntrySentiment
p1843
(dp1844
g12
I01
sg13
I75
sg14
VScotty McCreery
p1845
sg16
I95
sg17
VThe Trouble With Girls
p1846
sg19
I75
sg20
I5
sg21
S'+20'
p1847
sba(i__main__
EntrySentiment
p1848
(dp1849
g12
I01
sg13
I76
sg14
VGlee Cast
p1850
sg16
I0
sg17
VMan In The Mirror
p1851
sg19
I76
sg20
I1
sg21
g59
sba(i__main__
EntrySentiment
p1852
(dp1853
g12
I01
sg13
I70
sg14
VDierks Bentley
p1854
sg16
I79
sg17
VHome
p1855
sg19
I77
sg20
I5
sg21
S'+2'
p1856
sba(i__main__
EntrySentiment
p1857
(dp1858
g12
I01
sg13
I68
sg14
VThompson Square
p1859
sg16
I68
sg17
VI Got You
p1860
sg19
I78
sg20
I17
sg21
S'-10'
p1861
sba(i__main__
EntrySentiment
p1862
(dp1863
g12
I01
sg13
I79
sg14
VKenny Chesney
p1864
sg16
I80
sg17
VReality
p1865
sg19
I79
sg20
I6
sg21
S'+1'
p1866
sba(i__main__
EntrySentiment
p1867
(dp1868
g12
I01
sg13
I66
sg14
VAvicii
p1869
sg16
I71
sg17
VLevels
p1870
sg19
I80
sg20
I4
sg21
S'-9'
p1871
sba(i__main__
EntrySentiment
p1872
(dp1873
g12
I01
sg13
I79
sg14
VFlorence + The Machine
p1874
sg16
I88
sg17
VShake It Out
p1875
sg19
I81
sg20
I7
sg21
S'+7'
p1876
sba(i__main__
EntrySentiment
p1877
(dp1878
g12
I01
sg13
I32
sg14
VThe Script
p1879
sg16
I74
sg17
VNothing
p1880
sg19
I82
sg20
I18
sg21
S'-8'
p1881
sba(i__main__
EntrySentiment
p1882
(dp1883
g12
I01
sg13
I64
sg14
VNicki Minaj
p1884
sg16
I64
sg17
VRoman In Moscow
p1885
sg19
I83
sg20
I2
sg21
S'-19'
p1886
sba(i__main__
EntrySentiment
p1887
(dp1888
g12
I01
sg13
I84
sg14
VAvril Lavigne
p1889
sg16
I0
sg17
VWish You Were Here
p1890
sg19
I84
sg20
I2
sg21
g311
sba(i__main__
EntrySentiment
p1891
(dp1892
g12
I01
sg13
I17
sg14
VTaylor Swift
p1893
sg16
I65
sg17
VSparks Fly
p1894
sg19
I85
sg20
I20
sg21
S'-20'
p1895
sba(i__main__
EntrySentiment
p1896
(dp1897
g12
I01
sg13
I86
sg14
VHunter Hayes
p1898
sg16
I92
sg17
VStorm Warning
p1899
sg19
I86
sg20
I4
sg21
S'+6'
p1900
sba(i__main__
EntrySentiment
p1901
(dp1902
g12
I01
sg13
I87
sg14
VJustin Moore
p1903
sg16
I0
sg17
VBait A Hook
p1904
sg19
I87
sg20
I2
sg21
g311
sba(i__main__
EntrySentiment
p1905
(dp1906
g12
I01
sg13
I88
sg14
VGlee Cast
p1907
sg16
I0
sg17
VABC
p1908
sg19
I88
sg20
I1
sg21
g59
sba(i__main__
EntrySentiment
p1909
(dp1910
g12
I01
sg13
I83
sg14
VRomeo Santos Featuring Usher
p1911
sg16
I97
sg17
VPromise
p1912
sg19
I89
sg20
I8
sg21
S'+8'
p1913
sba(i__main__
EntrySentiment
p1914
(dp1915
g12
I01
sg13
I90
sg14
VJake Owen
p1916
sg16
I0
sg17
VAlone With You
p1917
sg19
I90
sg20
I1
sg21
g59
sba(i__main__
EntrySentiment
p1918
(dp1919
g12
I01
sg13
I91
sg14
VKeith Urban
p1920
sg16
I0
sg17
VYou Gonna Fly
p1921
sg19
I91
sg20
I1
sg21
g59
sba(i__main__
EntrySentiment
p1922
(dp1923
g12
I01
sg13
I92
sg14
VGlee Cast
p1924
sg16
I0
sg17
VRed Solo Cup
p1925
sg19
I92
sg20
I1
sg21
g59
sba(i__main__
EntrySentiment
p1926
(dp1927
g12
I01
sg13
I93
sg14
VKelly Clarkson
p1928
sg16
I0
sg17
VI'll Be Home For Christmas
p1929
sg19
I93
sg20
I1
sg21
g59
sba(i__main__
EntrySentiment
p1930
(dp1931
g12
I01
sg13
I41
sg14
VDaughtry
p1932
sg16
I81
sg17
VCrawling Back To You
p1933
sg19
I94
sg20
I9
sg21
S'-13'
p1934
sba(i__main__
EntrySentiment
p1935
(dp1936
g12
I01
sg13
I95
sg14
VBrad Paisley
p1937
sg16
I100
sg17
VCamouflage
p1938
sg19
I95
sg20
I2
sg21
S'+5'
p1939
sba(i__main__
EntrySentiment
p1940
(dp1941
g12
I01
sg13
I65
sg14
VAce Hood Featuring Chris Brown
p1942
sg16
I84
sg17
VBody 2 Body
p1943
sg19
I96
sg20
I13
sg21
S'-12'
p1944
sba(i__main__
EntrySentiment
p1945
(dp1946
g12
I01
sg13
I97
sg14
VWaka Flocka Flame Featuring Drake
p1947
sg16
I0
sg17
VRound Of Applause
p1948
sg19
I97
sg20
I1
sg21
g59
sba(i__main__
EntrySentiment
p1949
(dp1950
g12
I01
sg13
I20
sg14
VBeyonce
p1951
sg16
I0
sg17
VLove On Top
p1952
sg19
I98
sg20
I4
sg21
g311
sba(i__main__
EntrySentiment
p1953
(dp1954
g12
I01
sg13
I99
sg14
VEdens Edge
p1955
sg16
I0
sg17
VAmen
p1956
sg19
I99
sg20
I1
sg21
g59
sba(i__main__
EntrySentiment
p1957
(dp1958
g12
I01
sg13
I82
sg14
VAWOLNATION
p1959
sg16
I94
sg17
VSail
p1960
sg19
I100
sg20
I17
sg21
S'-6'
p1961
sbasg500
S'2011-12-24'
p1962
sg502
(lp1963
(g1506
g1507
g504
tp1964
asg506
I00
sba(i__main__
ChartSentiment
p1965
(dp1966
g3
I01
sg4
F-0.00471241414141413
sg5
g6
sg7
I1000
sg8
(lp1967
(i__main__
EntrySentiment
p1968
(dp1969
g12
I01
sg13
I1
sg14
VRihanna Featuring Calvin Harris
p1970
sg16
I1
sg17
VWe Found Love
p1971
sg19
I1
sg20
I13
sg21
g22
sba(i__main__
EntrySentiment
p1972
(dp1973
g12
I01
sg13
I2
sg14
VLMFAO
p1974
sg16
I2
sg17
VSexy And I Know It
p1975
sg19
I2
sg20
I16
sg21
g22
sba(i__main__
EntrySentiment
p1976
(dp1977
g12
I01
sg13
I3
sg14
VBruno Mars
p1978
sg16
I3
sg17
VIt Will Rain
p1979
sg19
I3
sg20
I12
sg21
g22
sba(i__main__
EntrySentiment
p1980
(dp1981
g12
I01
sg13
I4
sg14
VFlo Rida
p1982
sg16
I5
sg17
VGood Feeling
p1983
sg19
I4
sg20
I12
sg21
S'+1'
p1984
sba(i__main__
EntrySentiment
p1985
(dp1986
g12
I01
sg13
I4
sg14
VKaty Perry
p1987
sg16
I4
sg17
VThe One That Got Away
p1988
sg19
I5
sg20
I10
sg21
S'-1'
p1989
sba(i__main__
EntrySentiment
p1990
(dp1991
g12
I00
sg13
I6
sg14
VJay Z  Kanye West
p1992
sg16
I6
sg17
VNi**as in Paris
p1993
sg19
I6
sg20
I19
sg21
g22
sba(i__main__
EntrySentiment
p1994
(dp1995
g12
I01
sg13
I1
sg14
VAdele
p1996
sg16
I7
sg17
VSomeone Like You
p1997
sg19
I7
sg20
I24
sg21
g22
sba(i__main__
EntrySentiment
p1998
(dp1999
g12
I01
sg13
I4
sg14
VDavid Guetta Featuring Usher
p2000
sg16
I9
sg17
VWithout You
p2001
sg19
I8
sg20
I16
sg21
S'+1'
p2002
sba(i__main__
EntrySentiment
p2003
(dp2004
g12
I01
sg13
I1
sg14
VMaroon 5 Featuring Christina Aguilera
p2005
sg16
I8
sg17
VMoves Like Jagger
p2006
sg19
I9
sg20
I26
sg21
S'-1'
p2007
sba(i__main__
EntrySentiment
p2008
(dp2009
g12
I01
sg13
I10
sg14
VT-Pain Featuring Wiz Khalifa & Lily Allen
p2010
sg16
I10
sg17
V5 O'Clock
p2011
sg19
I10
sg20
I12
sg21
g22
sba(i__main__
EntrySentiment
p2012
(dp2013
g12
I01
sg13
I4
sg14
VGym Class Heroes Featuring Adam Levine
p2014
sg16
I11
sg17
VStereo Hearts
p2015
sg19
I11
sg20
I27
sg21
g22
sba(i__main__
EntrySentiment
p2016
(dp2017
g12
I01
sg13
I12
sg14
VBig Sean Featuring Nicki Minaj
p2018
sg16
I14
sg17
VDance (A$$)
p2019
sg19
I12
sg20
I11
sg21
S'+2'
p2020
sba(i__main__
EntrySentiment
p2021
(dp2022
g12
I01
sg13
I13
sg14
VAdele
p2023
sg16
I21
sg17
VSet Fire To The Rain
p2024
sg19
I13
sg20
I16
sg21
S'+8'
p2025
sba(i__main__
EntrySentiment
p2026
(dp2027
g12
I01
sg13
I14
sg14
VJ. Cole
p2028
sg16
I15
sg17
VWork Out
p2029
sg19
I14
sg20
I16
sg21
S'+1'
p2030
sba(i__main__
EntrySentiment
p2031
(dp2032
g12
I01
sg13
I1
sg14
VLMFAO Featuring Lauren Bennett & GoonRock
p2033
sg16
I13
sg17
VParty Rock Anthem
p2034
sg19
I15
sg20
I39
sg21
S'-2'
p2035
sba(i__main__
EntrySentiment
p2036
(dp2037
g12
I01
sg13
I13
sg14
VDrake
p2038
sg16
I16
sg17
VHeadlines
p2039
sg19
I16
sg20
I19
sg21
g22
sba(i__main__
EntrySentiment
p2040
(dp2041
g12
I01
sg13
I17
sg14
VToby Keith
p2042
sg16
I17
sg17
VRed Solo Cup
p2043
sg19
I17
sg20
I8
sg21
g22
sba(i__main__
EntrySentiment
p2044
(dp2045
g12
I01
sg13
I10
sg14
VSnoop Dogg & Wiz Khalifa Featuring Bruno Mars
p2046
sg16
I22
sg17
VYoung, Wild & Free
p2047
sg19
I18
sg20
I10
sg21
S'+4'
p2048
sba(i__main__
EntrySentiment
p2049
(dp2050
g12
I01
sg13
I3
sg14
VFoster The People
p2051
sg16
I18
sg17
VPumped Up Kicks
p2052
sg19
I19
sg20
I34
sg21
S'-1'
p2053
sba(i__main__
EntrySentiment
p2054
(dp2055
g12
I01
sg13
I7
sg14
VCobra Starship Featuring Sabi
p2056
sg16
I19
sg17
VYou Make Me Feel...
p2057
sg19
I20
sg20
I23
sg21
S'-1'
p2058
sba(i__main__
EntrySentiment
p2059
(dp2060
g12
I01
sg13
I10
sg14
VKelly Clarkson
p2061
sg16
I20
sg17
VMr. Know It All
p2062
sg19
I21
sg20
I15
sg21
S'-1'
p2063
sba(i__main__
EntrySentiment
p2064
(dp2065
g12
I01
sg13
I22
sg14
VGavin DeGraw
p2066
sg16
I24
sg17
VNot Over You
p2067
sg19
I22
sg20
I19
sg21
S'+2'
p2068
sba(i__main__
EntrySentiment
p2069
(dp2070
g12
I01
sg13
I22
sg14
VLuke Bryan
p2071
sg16
I25
sg17
VI Don't Want This Night To End
p2072
sg19
I23
sg20
I12
sg21
S'+2'
p2073
sba(i__main__
EntrySentiment
p2074
(dp2075
g12
I01
sg13
I9
sg14
VDrake Featuring Nicki Minaj
p2076
sg16
I27
sg17
VMake Me Proud
p2077
sg19
I24
sg20
I10
sg21
S'+3'
p2078
sba(i__main__
EntrySentiment
p2079
(dp2080
g12
I01
sg13
I14
sg14
VRihanna
p2081
sg16
I23
sg17
VYou Da One
p2082
sg19
I25
sg20
I6
sg21
S'-2'
p2083
sba(i__main__
EntrySentiment
p2084
(dp2085
g12
I01
sg13
I26
sg14
VSelena Gomez & The Scene
p2086
sg16
I31
sg17
VLove You Like A Love Song
p2087
sg19
I26
sg20
I26
sg21
S'+5'
p2088
sba(i__main__
EntrySentiment
p2089
(dp2090
g12
I01
sg13
I1
sg14
VPitbull Featuring Ne-Yo, Afrojack & Nayer
p2091
sg16
I26
sg17
VGive Me Everything
p2092
sg19
I27
sg20
I38
sg21
S'-1'
p2093
sba(i__main__
EntrySentiment
p2094
(dp2095
g12
I01
sg13
I28
sg14
VJessie J
p2096
sg16
I38
sg17
VDomino
p2097
sg19
I28
sg20
I10
sg21
S'+10'
p2098
sba(i__main__
EntrySentiment
p2099
(dp2100
g12
I01
sg13
I18
sg14
VDrake Featuring Lil Wayne
p2101
sg16
I30
sg17
VThe Motto
p2102
sg19
I29
sg20
I5
sg21
S'+1'
p2103
sba(i__main__
EntrySentiment
p2104
(dp2105
g12
I01
sg13
I30
sg14
VPitbull Featuring Chris Brown
p2106
sg16
I46
sg17
VInternational Love
p2107
sg19
I30
sg20
I7
sg21
S'+16'
p2108
sba(i__main__
EntrySentiment
p2109
(dp2110
g12
I01
sg13
I7
sg14
VLady Antebellum
p2111
sg16
I28
sg17
VJust A Kiss
p2112
sg19
I31
sg20
I33
sg21
S'-3'
p2113
sba(i__main__
EntrySentiment
p2114
(dp2115
g12
I01
sg13
I11
sg14
VJustin Bieber
p2116
sg16
I34
sg17
VMistletoe
p2117
sg19
I32
sg20
I8
sg21
S'+2'
p2118
sba(i__main__
EntrySentiment
p2119
(dp2120
g12
I01
sg13
I29
sg14
VLady Gaga
p2121
sg16
I29
sg17
VMarry The Night
p2122
sg19
I33
sg20
I6
sg21
S'-4'
p2123
sba(i__main__
EntrySentiment
p2124
(dp2125
g12
I01
sg13
I3
sg14
VNicki Minaj
p2126
sg16
I33
sg17
VSuper Bass
p2127
sg19
I34
sg20
I34
sg21
S'-1'
p2128
sba(i__main__
EntrySentiment
p2129
(dp2130
g12
I01
sg13
I3
sg14
VLil Wayne Featuring Drake
p2131
sg16
I36
sg17
VShe Will
p2132
sg19
I35
sg20
I18
sg21
S'+1'
p2133
sba(i__main__
EntrySentiment
p2134
(dp2135
g12
I01
sg13
I35
sg14
VZac Brown Band
p2136
sg16
I35
sg17
VKeep Me In Mind
p2137
sg19
I36
sg20
I12
sg21
S'-1'
p2138
sba(i__main__
EntrySentiment
p2139
(dp2140
g12
I01
sg13
I37
sg14
VKe$ha Featuring Lil Wayne, Wiz Khalifa, T.I. & Andre 3000
p2141
sg16
I0
sg17
VSleazy Remix 2.0 Get Sleazier
p2142
sg19
I37
sg20
I2
sg21
g311
sba(i__main__
EntrySentiment
p2143
(dp2144
g12
I01
sg13
I38
sg14
VWale Featuring Miguel
p2145
sg16
I44
sg17
VLotus Flower Bomb
p2146
sg19
I38
sg20
I8
sg21
S'+6'
p2147
sba(i__main__
EntrySentiment
p2148
(dp2149
g12
I01
sg13
I15
sg14
VColdplay
p2150
sg16
I42
sg17
VParadise
p2151
sg19
I39
sg20
I14
sg21
S'+3'
p2152
sba(i__main__
EntrySentiment
p2153
(dp2154
g12
I01
sg13
I11
sg14
VDev
p2155
sg16
I32
sg17
VIn The Dark
p2156
sg19
I40
sg20
I20
sg21
S'-8'
p2157
sba(i__main__
EntrySentiment
p2158
(dp2159
g12
I01
sg13
I1
sg14
VAdele
p2160
sg16
I40
sg17
VRolling In The Deep
p2161
sg19
I41
sg20
I50
sg21
S'-1'
p2162
sba(i__main__
EntrySentiment
p2163
(dp2164
g12
I01
sg13
I38
sg14
VJason Aldean
p2165
sg16
I39
sg17
VTattoos On This Town
p2166
sg19
I42
sg20
I13
sg21
S'-3'
p2167
sba(i__main__
EntrySentiment
p2168
(dp2169
g12
I01
sg13
I43
sg14
VRascal Flatts Featuring Natasha Bedingfield
p2170
sg16
I43
sg17
VEasy
p2171
sg19
I43
sg20
I21
sg21
g22
sba(i__main__
EntrySentiment
p2172
(dp2173
g12
I01
sg13
I43
sg14
VHot Chelle Rae Featuring New Boyz
p2174
sg16
I49
sg17
VI Like It Like That
p2175
sg19
I44
sg20
I11
sg21
S'+5'
p2176
sba(i__main__
EntrySentiment
p2177
(dp2178
g12
I01
sg13
I40
sg14
VEric Church
p2179
sg16
I50
sg17
VDrink In My Hand
p2180
sg19
I45
sg20
I13
sg21
S'+5'
p2181
sba(i__main__
EntrySentiment
p2182
(dp2183
g12
I01
sg13
I19
sg14
VNicki Minaj Featuring Rihanna
p2184
sg16
I37
sg17
VFly
p2185
sg19
I46
sg20
I17
sg21
S'-9'
p2186
sba(i__main__
EntrySentiment
p2187
(dp2188
g12
I01
sg13
I13
sg14
VTaylor Swift
p2189
sg16
I65
sg17
VOurs
p2190
sg19
I47
sg20
I6
sg21
S'+18'
p2191
sba(i__main__
EntrySentiment
p2192
(dp2193
g12
I01
sg13
I22
sg14
VBlake Shelton
p2194
sg16
I41
sg17
VGod Gave Me You
p2195
sg19
I48
sg20
I23
sg21
S'-7'
p2196
sba(i__main__
EntrySentiment
p2197
(dp2198
g12
I01
sg13
I49
sg14
VBreathe Carolina
p2199
sg16
I58
sg17
VBlackout
p2200
sg19
I49
sg20
I7
sg21
S'+9'
p2201
sba(i__main__
EntrySentiment
p2202
(dp2203
g12
I01
sg13
I31
sg14
VLady Antebellum
p2204
sg16
I45
sg17
VWe Owned The Night
p2205
sg19
I50
sg20
I18
sg21
S'-5'
p2206
sba(i__main__
EntrySentiment
p2207
(dp2208
g12
I01
sg13
I51
sg14
VDavid Nail
p2209
sg16
I54
sg17
VLet It Rain
p2210
sg19
I51
sg20
I14
sg21
S'+3'
p2211
sba(i__main__
EntrySentiment
p2212
(dp2213
g12
I01
sg13
I52
sg14
VChris Young
p2214
sg16
I56
sg17
VYou
p2215
sg19
I52
sg20
I9
sg21
S'+4'
p2216
sba(i__main__
EntrySentiment
p2217
(dp2218
g12
I01
sg13
I37
sg14
VThe Band Perry
p2219
sg16
I47
sg17
VAll Your Life
p2220
sg19
I53
sg20
I15
sg21
S'-6'
p2221
sba(i__main__
EntrySentiment
p2222
(dp2223
g12
I01
sg13
I17
sg14
VJason Derulo
p2224
sg16
I52
sg17
VIt Girl
p2225
sg19
I54
sg20
I19
sg21
S'-2'
p2226
sba(i__main__
EntrySentiment
p2227
(dp2228
g12
I01
sg13
I7
sg14
VB.o.B Featuring Lil Wayne
p2229
sg16
I60
sg17
VStrange Clouds
p2230
sg19
I55
sg20
I12
sg21
S'+5'
p2231
sba(i__main__
EntrySentiment
p2232
(dp2233
g12
I01
sg13
I56
sg14
VTyga
p2234
sg16
I57
sg17
VRack City
p2235
sg19
I56
sg20
I4
sg21
S'+1'
p2236
sba(i__main__
EntrySentiment
p2237
(dp2238
g12
I01
sg13
I50
sg14
VBeyonce Featuring Andre 3000
p2239
sg16
I55
sg17
VParty
p2240
sg19
I57
sg20
I11
sg21
S'-2'
p2241
sba(i__main__
EntrySentiment
p2242
(dp2243
g12
I01
sg13
I9
sg14
VDrake Featuring Rihanna
p2244
sg16
I61
sg17
VTake Care
p2245
sg19
I58
sg20
I5
sg21
S'+3'
p2246
sba(i__main__
EntrySentiment
p2247
(dp2248
g12
I01
sg13
I12
sg14
VGlee Cast
p2249
sg16
I12
sg17
VWe Are Young
p2250
sg19
I59
sg20
I2
sg21
S'-47'
p2251
sba(i__main__
EntrySentiment
p2252
(dp2253
g12
I01
sg13
I43
sg14
VChristina Perri
p2254
sg16
I62
sg17
VA Thousand Years
p2255
sg19
I60
sg20
I9
sg21
S'+2'
p2256
sba(i__main__
EntrySentiment
p2257
(dp2258
g12
I01
sg13
I61
sg14
VOutasight
p2259
sg16
I68
sg17
VTonight Is The Night
p2260
sg19
I61
sg20
I4
sg21
S'+7'
p2261
sba(i__main__
EntrySentiment
p2262
(dp2263
g12
I01
sg13
I6
sg14
VLady Gaga
p2264
sg16
I59
sg17
VYou And I
p2265
sg19
I62
sg20
I20
sg21
S'-3'
p2266
sba(i__main__
EntrySentiment
p2267
(dp2268
g12
I01
sg13
I43
sg14
VThe Fray
p2269
sg16
I67
sg17
VHeartbeat
p2270
sg19
I63
sg20
I9
sg21
S'+4'
p2271
sba(i__main__
EntrySentiment
p2272
(dp2273
g12
I01
sg13
I60
sg14
VColbie Caillat
p2274
sg16
I63
sg17
VBrighter Than The Sun
p2275
sg19
I64
sg20
I18
sg21
S'-1'
p2276
sba(i__main__
EntrySentiment
p2277
(dp2278
g12
I01
sg13
I65
sg14
VJ. Cole Featuring Trey Songz
p2279
sg16
I71
sg17
VCan't Get Enough
p2280
sg19
I65
sg20
I3
sg21
S'+6'
p2281
sba(i__main__
EntrySentiment
p2282
(dp2283
g12
I01
sg13
I44
sg14
VNickelback
p2284
sg16
I70
sg17
VWhen We Stand Together
p2285
sg19
I66
sg20
I12
sg21
S'+4'
p2286
sba(i__main__
EntrySentiment
p2287
(dp2288
g12
I01
sg13
I67
sg14
VRick Ross Featuring Nicki Minaj
p2289
sg16
I72
sg17
VYou The Boss
p2290
sg19
I67
sg20
I9
sg21
S'+5'
p2291
sba(i__main__
EntrySentiment
p2292
(dp2293
g12
I01
sg13
I37
sg14
VDavid Guetta Featuring Nicki Minaj
p2294
sg16
I0
sg17
VTurn Me On
p2295
sg19
I68
sg20
I3
sg21
g311
sba(i__main__
EntrySentiment
p2296
(dp2297
g12
I01
sg13
I64
sg14
VThe Black Keys
p2298
sg16
I64
sg17
VLonely Boy
p2299
sg19
I69
sg20
I6
sg21
S'-5'
p2300
sba(i__main__
EntrySentiment
p2301
(dp2302
g12
I01
sg13
I44
sg14
VMiranda Lambert
p2303
sg16
I66
sg17
VBaggage Claim
p2304
sg19
I70
sg20
I19
sg21
S'-4'
p2305
sba(i__main__
EntrySentiment
p2306
(dp2307
g12
I01
sg13
I61
sg14
VMartina McBride
p2308
sg16
I74
sg17
VI'm Gonna Love You Through It
p2309
sg19
I71
sg20
I11
sg21
S'+3'
p2310
sba(i__main__
EntrySentiment
p2311
(dp2312
g12
I01
sg13
I72
sg14
VJake Owen
p2313
sg16
I90
sg17
VAlone With You
p2314
sg19
I72
sg20
I2
sg21
S'+18'
p2315
sba(i__main__
EntrySentiment
p2316
(dp2317
g12
I01
sg13
I49
sg14
VWale Featuring Jeremih & Rick Ross
p2318
sg16
I73
sg17
VThat Way
p2319
sg19
I73
sg20
I16
sg21
g22
sba(i__main__
EntrySentiment
p2320
(dp2321
g12
I01
sg13
I70
sg14
VDierks Bentley
p2322
sg16
I77
sg17
VHome
p2323
sg19
I74
sg20
I6
sg21
S'+3'
p2324
sba(i__main__
EntrySentiment
p2325
(dp2326
g12
I01
sg13
I48
sg14
VT-Pain Featuring Lil Wayne
p2327
sg16
I48
sg17
VBang Bang Pow Pow
p2328
sg19
I75
sg20
I2
sg21
S'-27'
p2329
sba(i__main__
EntrySentiment
p2330
(dp2331
g12
I01
sg13
I76
sg14
VKenny Chesney
p2332
sg16
I79
sg17
VReality
p2333
sg19
I76
sg20
I7
sg21
S'+3'
p2334
sba(i__main__
EntrySentiment
p2335
(dp2336
g12
I01
sg13
I66
sg14
VAvicii
p2337
sg16
I80
sg17
VLevels
p2338
sg19
I77
sg20
I5
sg21
S'+3'
p2339
sba(i__main__
EntrySentiment
p2340
(dp2341
g12
I01
sg13
I53
sg14
VFun. Featuring Janelle Monae
p2342
sg16
I53
sg17
VWe Are Young
p2343
sg19
I78
sg20
I2
sg21
S'-25'
p2344
sba(i__main__
EntrySentiment
p2345
(dp2346
g12
I01
sg13
I79
sg14
VKeith Urban
p2347
sg16
I91
sg17
VYou Gonna Fly
p2348
sg19
I79
sg20
I2
sg21
S'+12'
p2349
sba(i__main__
EntrySentiment
p2350
(dp2351
g12
I01
sg13
I80
sg14
VAvril Lavigne
p2352
sg16
I84
sg17
VWish You Were Here
p2353
sg19
I80
sg20
I3
sg21
S'+4'
p2354
sba(i__main__
EntrySentiment
p2355
(dp2356
g12
I01
sg13
I81
sg14
VTim McGraw
p2357
sg16
I0
sg17
VBetter Than I Used To Be
p2358
sg19
I81
sg20
I1
sg21
g59
sba(i__main__
EntrySentiment
p2359
(dp2360
g12
I01
sg13
I79
sg14
VFlorence + The Machine
p2361
sg16
I81
sg17
VShake It Out
p2362
sg19
I82
sg20
I8
sg21
S'-1'
p2363
sba(i__main__
EntrySentiment
p2364
(dp2365
g12
I01
sg13
I83
sg14
VJustin Moore
p2366
sg16
I87
sg17
VBait A Hook
p2367
sg19
I83
sg20
I3
sg21
S'+4'
p2368
sba(i__main__
EntrySentiment
p2369
(dp2370
g12
I01
sg13
I75
sg14
VScotty McCreery
p2371
sg16
I75
sg17
VThe Trouble With Girls
p2372
sg19
I84
sg20
I6
sg21
S'-9'
p2373
sba(i__main__
EntrySentiment
p2374
(dp2375
g12
I01
sg13
I85
sg14
VHunter Hayes
p2376
sg16
I86
sg17
VStorm Warning
p2377
sg19
I85
sg20
I5
sg21
S'+1'
p2378
sba(i__main__
EntrySentiment
p2379
(dp2380
g12
I01
sg13
I86
sg14
VWaka Flocka Flame Featuring Drake
p2381
sg16
I97
sg17
VRound Of Applause
p2382
sg19
I86
sg20
I2
sg21
S'+11'
p2383
sba(i__main__
EntrySentiment
p2384
(dp2385
g12
I01
sg13
I32
sg14
VThe Script
p2386
sg16
I82
sg17
VNothing
p2387
sg19
I87
sg20
I19
sg21
S'-5'
p2388
sba(i__main__
EntrySentiment
p2389
(dp2390
g12
I01
sg13
I88
sg14
VBrad Paisley
p2391
sg16
I95
sg17
VCamouflage
p2392
sg19
I88
sg20
I3
sg21
S'+7'
p2393
sba(i__main__
EntrySentiment
p2394
(dp2395
g12
I01
sg13
I82
sg14
VAWOLNATION
p2396
sg16
I100
sg17
VSail
p2397
sg19
I89
sg20
I18
sg21
S'+11'
p2398
sba(i__main__
EntrySentiment
p2399
(dp2400
g12
I01
sg13
I90
sg14
VEdens Edge
p2401
sg16
I99
sg17
VAmen
p2402
sg19
I90
sg20
I2
sg21
S'+9'
p2403
sba(i__main__
EntrySentiment
p2404
(dp2405
g12
I01
sg13
I71
sg14
VBeyonce
p2406
sg16
I0
sg17
VCountdown
p2407
sg19
I91
sg20
I9
sg21
g311
sba(i__main__
EntrySentiment
p2408
(dp2409
g12
I01
sg13
I92
sg14
VGlee Cast
p2410
sg16
I0
sg17
VDo They Know It's Christmas?
p2411
sg19
I92
sg20
I1
sg21
g59
sba(i__main__
EntrySentiment
p2412
(dp2413
g12
I01
sg13
I69
sg14
VGrouplove
p2414
sg16
I69
sg17
VTongue Tied
p2415
sg19
I93
sg20
I3
sg21
S'-24'
p2416
sba(i__main__
EntrySentiment
p2417
(dp2418
g12
I01
sg13
I20
sg14
VBeyonce
p2419
sg16
I98
sg17
VLove On Top
p2420
sg19
I94
sg20
I5
sg21
S'+4'
p2421
sba(i__main__
EntrySentiment
p2422
(dp2423
g12
I01
sg13
I68
sg14
VThompson Square
p2424
sg16
I78
sg17
VI Got You
p2425
sg19
I95
sg20
I18
sg21
S'-17'
p2426
sba(i__main__
EntrySentiment
p2427
(dp2428
g12
I01
sg13
I96
sg14
VLee Brice
p2429
sg16
I0
sg17
VA Woman Like You
p2430
sg19
I96
sg20
I1
sg21
g59
sba(i__main__
EntrySentiment
p2431
(dp2432
g12
I01
sg13
I83
sg14
VRomeo Santos Featuring Usher
p2433
sg16
I89
sg17
VPromise
p2434
sg19
I97
sg20
I9
sg21
S'-8'
p2435
sba(i__main__
EntrySentiment
p2436
(dp2437
g12
I01
sg13
I91
sg14
VRoscoe Dash
p2438
sg16
I0
sg17
VGood Good Night
p2439
sg19
I98
sg20
I2
sg21
g311
sba(i__main__
EntrySentiment
p2440
(dp2441
g12
I01
sg13
I99
sg14
VMichael Buble
p2442
sg16
I0
sg17
VAll I Want For Christmas Is You
p2443
sg19
I99
sg20
I1
sg21
g59
sba(i__main__
EntrySentiment
p2444
(dp2445
g12
I01
sg13
I100
sg14
VGym Class Heroes Featuring Neon Hitch
p2446
sg16
I0
sg17
VAss Back Home
p2447
sg19
I100
sg20
I1
sg21
g59
sbasg500
S'2011-12-31'
p2448
sg502
(lp2449
(g1992
g1993
g504
tp2450
asg506
I00
sba.